; Listing generated by Microsoft (R) Optimizing Compiler Version 19.36.32535.0 

include listing.inc

INCLUDELIB OLDNAMES

PUBLIC	??_C@_0BC@EOODALEL@Unknown?5exception@		; `string'
PUBLIC	??_C@_0BF@KINCDENJ@bad?5array?5new?5length@	; `string'
PUBLIC	??_C@_0BB@GCADKGJO@map?1set?5too?5long@		; `string'
PUBLIC	??_C@_01CLKCMJKC@?5@				; `string'
PUBLIC	??_C@_0BA@FOIKENOD@vector?5too?5long@		; `string'
PUBLIC	??_R4exception@std@@6B@				; std::exception::`RTTI Complete Object Locator'
PUBLIC	??_R2bad_array_new_length@std@@8		; std::bad_array_new_length::`RTTI Base Class Array'
PUBLIC	??_R0?AVbad_alloc@std@@@8			; std::bad_alloc `RTTI Type Descriptor'
PUBLIC	??_R2bad_alloc@std@@8				; std::bad_alloc::`RTTI Base Class Array'
PUBLIC	_CTA3?AVbad_array_new_length@std@@
PUBLIC	??_7bad_array_new_length@std@@6B@		; std::bad_array_new_length::`vftable'
PUBLIC	??_R1A@?0A@EA@exception@std@@8			; std::exception::`RTTI Base Class Descriptor at (0,-1,0,64)'
PUBLIC	??_R1A@?0A@EA@bad_alloc@std@@8			; std::bad_alloc::`RTTI Base Class Descriptor at (0,-1,0,64)'
PUBLIC	??_7bad_alloc@std@@6B@				; std::bad_alloc::`vftable'
PUBLIC	??_R2exception@std@@8				; std::exception::`RTTI Base Class Array'
PUBLIC	??_7exception@std@@6B@				; std::exception::`vftable'
PUBLIC	??_R3exception@std@@8				; std::exception::`RTTI Class Hierarchy Descriptor'
PUBLIC	_CT??_R0?AVbad_array_new_length@std@@@8??0bad_array_new_length@std@@QEAA@AEBV01@@Z24
PUBLIC	??_R4bad_alloc@std@@6B@				; std::bad_alloc::`RTTI Complete Object Locator'
PUBLIC	??_R3bad_array_new_length@std@@8		; std::bad_array_new_length::`RTTI Class Hierarchy Descriptor'
PUBLIC	_CT??_R0?AVbad_alloc@std@@@8??0bad_alloc@std@@QEAA@AEBV01@@Z24
PUBLIC	??_R3bad_alloc@std@@8				; std::bad_alloc::`RTTI Class Hierarchy Descriptor'
PUBLIC	??_R4bad_array_new_length@std@@6B@		; std::bad_array_new_length::`RTTI Complete Object Locator'
PUBLIC	??_R1A@?0A@EA@bad_array_new_length@std@@8	; std::bad_array_new_length::`RTTI Base Class Descriptor at (0,-1,0,64)'
PUBLIC	_CT??_R0?AVexception@std@@@8??0exception@std@@QEAA@AEBV01@@Z24
PUBLIC	_TI3?AVbad_array_new_length@std@@
PUBLIC	??_R0?AVexception@std@@@8			; std::exception `RTTI Type Descriptor'
PUBLIC	??_R0?AVbad_array_new_length@std@@@8		; std::bad_array_new_length `RTTI Type Descriptor'
EXTRN	__imp_?good@ios_base@std@@QEBA_NXZ:PROC
EXTRN	__imp_?flags@ios_base@std@@QEBAHXZ:PROC
EXTRN	__imp_?width@ios_base@std@@QEBA_JXZ:PROC
EXTRN	__imp_?width@ios_base@std@@QEAA_J_J@Z:PROC
EXTRN	__imp_??6?$basic_ostream@DU?$char_traits@D@std@@@std@@QEAAAEAV01@H@Z:PROC
EXTRN	__imp_??6?$basic_ostream@DU?$char_traits@D@std@@@std@@QEAAAEAV01@P6AAEAV01@AEAV01@@Z@Z:PROC
EXTRN	__imp_?fill@?$basic_ios@DU?$char_traits@D@std@@@std@@QEBADXZ:PROC
EXTRN	__imp_?rdbuf@?$basic_ios@DU?$char_traits@D@std@@@std@@QEBAPEAV?$basic_streambuf@DU?$char_traits@D@std@@@2@XZ:PROC
EXTRN	__imp_?setstate@?$basic_ios@DU?$char_traits@D@std@@@std@@QEAAXH_N@Z:PROC
EXTRN	__imp_?flush@?$basic_ostream@DU?$char_traits@D@std@@@std@@QEAAAEAV12@XZ:PROC
EXTRN	__imp_?_Osfx@?$basic_ostream@DU?$char_traits@D@std@@@std@@QEAAXXZ:PROC
EXTRN	__imp_?tie@?$basic_ios@DU?$char_traits@D@std@@@std@@QEBAPEAV?$basic_ostream@DU?$char_traits@D@std@@@2@XZ:PROC
EXTRN	__imp_?sputc@?$basic_streambuf@DU?$char_traits@D@std@@@std@@QEAAHD@Z:PROC
EXTRN	__imp_?put@?$basic_ostream@DU?$char_traits@D@std@@@std@@QEAAAEAV12@D@Z:PROC
EXTRN	__imp_?widen@?$basic_ios@DU?$char_traits@D@std@@@std@@QEBADD@Z:PROC
EXTRN	__imp_?sputn@?$basic_streambuf@DU?$char_traits@D@std@@@std@@QEAA_JPEBD_J@Z:PROC
EXTRN	__imp__invalid_parameter_noinfo_noreturn:PROC
EXTRN	??_7type_info@@6B@:BYTE				; type_info::`vftable'
EXTRN	__imp___std_terminate:PROC
EXTRN	??3@YAXPEAX_K@Z:PROC				; operator delete
EXTRN	__imp___std_exception_copy:PROC
EXTRN	__imp_?_Xlength_error@std@@YAXPEBD@Z:PROC
EXTRN	__imp_?uncaught_exception@std@@YA_NXZ:PROC
EXTRN	__imp_?cout@std@@3V?$basic_ostream@DU?$char_traits@D@std@@@1@A:BYTE
EXTRN	??2@YAPEAX_K@Z:PROC				; operator new
EXTRN	__imp___std_exception_destroy:PROC
EXTRN	__security_check_cookie:PROC
EXTRN	__imp___CxxFrameHandler4:PROC
;	COMDAT ??_R0?AVbad_array_new_length@std@@@8
data$r	SEGMENT
??_R0?AVbad_array_new_length@std@@@8 DQ FLAT:??_7type_info@@6B@ ; std::bad_array_new_length `RTTI Type Descriptor'
	DQ	0000000000000000H
	DB	'.?AVbad_array_new_length@std@@', 00H
data$r	ENDS
;	COMDAT ??_R0?AVexception@std@@@8
data$r	SEGMENT
??_R0?AVexception@std@@@8 DQ FLAT:??_7type_info@@6B@	; std::exception `RTTI Type Descriptor'
	DQ	0000000000000000H
	DB	'.?AVexception@std@@', 00H
data$r	ENDS
;	COMDAT _TI3?AVbad_array_new_length@std@@
xdata$x	SEGMENT
_TI3?AVbad_array_new_length@std@@ DD 00H
	DD	imagerel ??1bad_array_new_length@std@@UEAA@XZ
	DD	00H
	DD	imagerel _CTA3?AVbad_array_new_length@std@@
xdata$x	ENDS
;	COMDAT _CT??_R0?AVexception@std@@@8??0exception@std@@QEAA@AEBV01@@Z24
xdata$x	SEGMENT
_CT??_R0?AVexception@std@@@8??0exception@std@@QEAA@AEBV01@@Z24 DD 00H
	DD	imagerel ??_R0?AVexception@std@@@8
	DD	00H
	DD	0ffffffffH
	ORG $+4
	DD	018H
	DD	imagerel ??0exception@std@@QEAA@AEBV01@@Z
xdata$x	ENDS
;	COMDAT ??_R1A@?0A@EA@bad_array_new_length@std@@8
rdata$r	SEGMENT
??_R1A@?0A@EA@bad_array_new_length@std@@8 DD imagerel ??_R0?AVbad_array_new_length@std@@@8 ; std::bad_array_new_length::`RTTI Base Class Descriptor at (0,-1,0,64)'
	DD	02H
	DD	00H
	DD	0ffffffffH
	DD	00H
	DD	040H
	DD	imagerel ??_R3bad_array_new_length@std@@8
rdata$r	ENDS
;	COMDAT ??_R4bad_array_new_length@std@@6B@
rdata$r	SEGMENT
??_R4bad_array_new_length@std@@6B@ DD 01H		; std::bad_array_new_length::`RTTI Complete Object Locator'
	DD	00H
	DD	00H
	DD	imagerel ??_R0?AVbad_array_new_length@std@@@8
	DD	imagerel ??_R3bad_array_new_length@std@@8
	DD	imagerel ??_R4bad_array_new_length@std@@6B@
rdata$r	ENDS
;	COMDAT ??_R3bad_alloc@std@@8
rdata$r	SEGMENT
??_R3bad_alloc@std@@8 DD 00H				; std::bad_alloc::`RTTI Class Hierarchy Descriptor'
	DD	00H
	DD	02H
	DD	imagerel ??_R2bad_alloc@std@@8
rdata$r	ENDS
;	COMDAT _CT??_R0?AVbad_alloc@std@@@8??0bad_alloc@std@@QEAA@AEBV01@@Z24
xdata$x	SEGMENT
_CT??_R0?AVbad_alloc@std@@@8??0bad_alloc@std@@QEAA@AEBV01@@Z24 DD 010H
	DD	imagerel ??_R0?AVbad_alloc@std@@@8
	DD	00H
	DD	0ffffffffH
	ORG $+4
	DD	018H
	DD	imagerel ??0bad_alloc@std@@QEAA@AEBV01@@Z
xdata$x	ENDS
;	COMDAT ??_R3bad_array_new_length@std@@8
rdata$r	SEGMENT
??_R3bad_array_new_length@std@@8 DD 00H			; std::bad_array_new_length::`RTTI Class Hierarchy Descriptor'
	DD	00H
	DD	03H
	DD	imagerel ??_R2bad_array_new_length@std@@8
rdata$r	ENDS
;	COMDAT ??_R4bad_alloc@std@@6B@
rdata$r	SEGMENT
??_R4bad_alloc@std@@6B@ DD 01H				; std::bad_alloc::`RTTI Complete Object Locator'
	DD	00H
	DD	00H
	DD	imagerel ??_R0?AVbad_alloc@std@@@8
	DD	imagerel ??_R3bad_alloc@std@@8
	DD	imagerel ??_R4bad_alloc@std@@6B@
?_Fake_alloc@std@@3U_Fake_allocator@1@B	ORG $+1		; std::_Fake_alloc
CONST	ENDS
;	COMDAT _CT??_R0?AVbad_array_new_length@std@@@8??0bad_array_new_length@std@@QEAA@AEBV01@@Z24
xdata$x	SEGMENT
_CT??_R0?AVbad_array_new_length@std@@@8??0bad_array_new_length@std@@QEAA@AEBV01@@Z24 DD 00H
	DD	imagerel ??_R0?AVbad_array_new_length@std@@@8
	DD	00H
	DD	0ffffffffH
	ORG $+4
	DD	018H
	DD	imagerel ??0bad_array_new_length@std@@QEAA@AEBV01@@Z
xdata$x	ENDS
;	COMDAT ??_R3exception@std@@8
rdata$r	SEGMENT
??_R3exception@std@@8 DD 00H				; std::exception::`RTTI Class Hierarchy Descriptor'
	DD	00H
	DD	01H
	DD	imagerel ??_R2exception@std@@8
rdata$r	ENDS
;	COMDAT ??_7exception@std@@6B@
CONST	SEGMENT
??_7exception@std@@6B@ DQ FLAT:??_R4exception@std@@6B@	; std::exception::`vftable'
	DQ	FLAT:??_Eexception@std@@UEAAPEAXI@Z
	DQ	FLAT:?what@exception@std@@UEBAPEBDXZ
CONST	ENDS
;	COMDAT ??_R2exception@std@@8
rdata$r	SEGMENT
??_R2exception@std@@8 DD imagerel ??_R1A@?0A@EA@exception@std@@8 ; std::exception::`RTTI Base Class Array'
	ORG $+3
rdata$r	ENDS
;	COMDAT ??_7bad_alloc@std@@6B@
CONST	SEGMENT
??_7bad_alloc@std@@6B@ DQ FLAT:??_R4bad_alloc@std@@6B@	; std::bad_alloc::`vftable'
	DQ	FLAT:??_Ebad_alloc@std@@UEAAPEAXI@Z
	DQ	FLAT:?what@exception@std@@UEBAPEBDXZ
CONST	ENDS
;	COMDAT ??_R1A@?0A@EA@bad_alloc@std@@8
rdata$r	SEGMENT
??_R1A@?0A@EA@bad_alloc@std@@8 DD imagerel ??_R0?AVbad_alloc@std@@@8 ; std::bad_alloc::`RTTI Base Class Descriptor at (0,-1,0,64)'
	DD	01H
	DD	00H
	DD	0ffffffffH
	DD	00H
	DD	040H
	DD	imagerel ??_R3bad_alloc@std@@8
rdata$r	ENDS
;	COMDAT ??_R1A@?0A@EA@exception@std@@8
rdata$r	SEGMENT
??_R1A@?0A@EA@exception@std@@8 DD imagerel ??_R0?AVexception@std@@@8 ; std::exception::`RTTI Base Class Descriptor at (0,-1,0,64)'
	DD	00H
	DD	00H
	DD	0ffffffffH
	DD	00H
	DD	040H
	DD	imagerel ??_R3exception@std@@8
rdata$r	ENDS
;	COMDAT ??_7bad_array_new_length@std@@6B@
CONST	SEGMENT
??_7bad_array_new_length@std@@6B@ DQ FLAT:??_R4bad_array_new_length@std@@6B@ ; std::bad_array_new_length::`vftable'
	DQ	FLAT:??_Ebad_array_new_length@std@@UEAAPEAXI@Z
	DQ	FLAT:?what@exception@std@@UEBAPEBDXZ
CONST	ENDS
;	COMDAT _CTA3?AVbad_array_new_length@std@@
xdata$x	SEGMENT
_CTA3?AVbad_array_new_length@std@@ DD 03H
	DD	imagerel _CT??_R0?AVbad_array_new_length@std@@@8??0bad_array_new_length@std@@QEAA@AEBV01@@Z24
	DD	imagerel _CT??_R0?AVbad_alloc@std@@@8??0bad_alloc@std@@QEAA@AEBV01@@Z24
	DD	imagerel _CT??_R0?AVexception@std@@@8??0exception@std@@QEAA@AEBV01@@Z24
xdata$x	ENDS
;	COMDAT ??_R2bad_alloc@std@@8
rdata$r	SEGMENT
??_R2bad_alloc@std@@8 DD imagerel ??_R1A@?0A@EA@bad_alloc@std@@8 ; std::bad_alloc::`RTTI Base Class Array'
	DD	imagerel ??_R1A@?0A@EA@exception@std@@8
	ORG $+3
rdata$r	ENDS
;	COMDAT ??_R0?AVbad_alloc@std@@@8
data$r	SEGMENT
??_R0?AVbad_alloc@std@@@8 DQ FLAT:??_7type_info@@6B@	; std::bad_alloc `RTTI Type Descriptor'
	DQ	0000000000000000H
	DB	'.?AVbad_alloc@std@@', 00H
data$r	ENDS
;	COMDAT ??_R2bad_array_new_length@std@@8
rdata$r	SEGMENT
??_R2bad_array_new_length@std@@8 DD imagerel ??_R1A@?0A@EA@bad_array_new_length@std@@8 ; std::bad_array_new_length::`RTTI Base Class Array'
	DD	imagerel ??_R1A@?0A@EA@bad_alloc@std@@8
	DD	imagerel ??_R1A@?0A@EA@exception@std@@8
	ORG $+3
rdata$r	ENDS
;	COMDAT ??_R4exception@std@@6B@
rdata$r	SEGMENT
??_R4exception@std@@6B@ DD 01H				; std::exception::`RTTI Complete Object Locator'
	DD	00H
	DD	00H
	DD	imagerel ??_R0?AVexception@std@@@8
	DD	imagerel ??_R3exception@std@@8
	DD	imagerel ??_R4exception@std@@6B@
rdata$r	ENDS
;	COMDAT ??_C@_0BA@FOIKENOD@vector?5too?5long@
CONST	SEGMENT
??_C@_0BA@FOIKENOD@vector?5too?5long@ DB 'vector too long', 00H ; `string'
CONST	ENDS
;	COMDAT ??_C@_01CLKCMJKC@?5@
CONST	SEGMENT
??_C@_01CLKCMJKC@?5@ DB ' ', 00H			; `string'
CONST	ENDS
;	COMDAT ??_C@_0BB@GCADKGJO@map?1set?5too?5long@
CONST	SEGMENT
??_C@_0BB@GCADKGJO@map?1set?5too?5long@ DB 'map/set too long', 00H ; `string'
CONST	ENDS
;	COMDAT ??_C@_0BF@KINCDENJ@bad?5array?5new?5length@
CONST	SEGMENT
??_C@_0BF@KINCDENJ@bad?5array?5new?5length@ DB 'bad array new length', 00H ; `string'
CONST	ENDS
;	COMDAT ??_C@_0BC@EOODALEL@Unknown?5exception@
CONST	SEGMENT
??_C@_0BC@EOODALEL@Unknown?5exception@ DB 'Unknown exception', 00H ; `string'
CONST	ENDS
PUBLIC	??$?RAEBHAEBH@?$less@X@std@@QEBA_NAEBH0@Z	; std::less<void>::operator()<int const &,int const &>
PUBLIC	??$lexicographical_compare@PEBHPEBHU?$less@X@std@@@std@@YA_NQEBH000U?$less@X@0@@Z ; std::lexicographical_compare<int const *,int const *,std::less<void> >
PUBLIC	??$forward@AEAPEAU?$_Tree_node@V?$vector@HV?$allocator@H@std@@@std@@PEAX@std@@@std@@YAAEAPEAU?$_Tree_node@V?$vector@HV?$allocator@H@std@@@std@@PEAX@0@AEAPEAU10@@Z ; std::forward<std::_Tree_node<std::vector<int,std::allocator<int> >,void *> * &>
PUBLIC	??$lexicographical_compare@PEBHPEBH@std@@YA_NQEBH000@Z ; std::lexicographical_compare<int const *,int const *>
PUBLIC	??$forward@AEAPEAU?$_Tree_node@HPEAX@std@@@std@@YAAEAPEAU?$_Tree_node@HPEAX@0@AEAPEAU10@@Z ; std::forward<std::_Tree_node<int,void *> * &>
PUBLIC	??$addressof@$$CBV?$_Tree_val@U?$_Tree_simple_types@H@std@@@std@@@std@@YAPEBV?$_Tree_val@U?$_Tree_simple_types@H@std@@@0@AEBV10@@Z ; std::addressof<std::_Tree_val<std::_Tree_simple_types<int> > const >
PUBLIC	??$addressof@$$CBV?$_Tree_val@U?$_Tree_simple_types@V?$vector@HV?$allocator@H@std@@@std@@@std@@@std@@@std@@YAPEBV?$_Tree_val@U?$_Tree_simple_types@V?$vector@HV?$allocator@H@std@@@std@@@std@@@0@AEBV10@@Z ; std::addressof<std::_Tree_val<std::_Tree_simple_types<std::vector<int,std::allocator<int> > > > const >
PUBLIC	??$?RAEBHAEBH@?$equal_to@X@std@@QEBA_NAEBH0@Z	; std::equal_to<void>::operator()<int const &,int const &>
PUBLIC	??$_Memcmp_ranges@PEBHPEBH@std@@YAHPEBH00@Z	; std::_Memcmp_ranges<int const *,int const *>
PUBLIC	??$_Adl_verify_range@PEBHPEBH@std@@YAXAEBQEBH0@Z ; std::_Adl_verify_range<int const *,int const *>
PUBLIC	??$_Construct_in_place@PEAU?$_Tree_node@V?$vector@HV?$allocator@H@std@@@std@@PEAX@std@@AEAPEAU12@@std@@YAXAEAPEAU?$_Tree_node@V?$vector@HV?$allocator@H@std@@@std@@PEAX@0@0@Z ; std::_Construct_in_place<std::_Tree_node<std::vector<int,std::allocator<int> >,void *> *,std::_Tree_node<std::vector<int,std::allocator<int> >,void *> * &>
PUBLIC	??$construct@V?$vector@HV?$allocator@H@std@@@std@@AEAV12@@?$_Default_allocator_traits@V?$allocator@U?$_Tree_node@V?$vector@HV?$allocator@H@std@@@std@@PEAX@std@@@std@@@std@@SAXAEAV?$allocator@U?$_Tree_node@V?$vector@HV?$allocator@H@std@@@std@@PEAX@std@@@1@QEAV?$vector@HV?$allocator@H@std@@@1@AEAV31@@Z ; std::_Default_allocator_traits<std::allocator<std::_Tree_node<std::vector<int,std::allocator<int> >,void *> > >::construct<std::vector<int,std::allocator<int> >,std::vector<int,std::allocator<int> > &>
PUBLIC	??$_Lower_bound_duplicate@V?$vector@HV?$allocator@H@std@@@std@@@?$_Tree@V?$_Tset_traits@V?$vector@HV?$allocator@H@std@@@std@@U?$less@V?$vector@HV?$allocator@H@std@@@std@@@2@V?$allocator@V?$vector@HV?$allocator@H@std@@@std@@@2@$0A@@std@@@std@@IEBA_NQEAU?$_Tree_node@V?$vector@HV?$allocator@H@std@@@std@@PEAX@1@AEBV?$vector@HV?$allocator@H@std@@@1@@Z ; std::_Tree<std::_Tset_traits<std::vector<int,std::allocator<int> >,std::less<std::vector<int,std::allocator<int> > >,std::allocator<std::vector<int,std::allocator<int> > >,0> >::_Lower_bound_duplicate<std::vector<int,std::allocator<int> > >
PUBLIC	??$_Find_lower_bound@V?$vector@HV?$allocator@H@std@@@std@@@?$_Tree@V?$_Tset_traits@V?$vector@HV?$allocator@H@std@@@std@@U?$less@V?$vector@HV?$allocator@H@std@@@std@@@2@V?$allocator@V?$vector@HV?$allocator@H@std@@@std@@@2@$0A@@std@@@std@@IEBA?AU?$_Tree_find_result@PEAU?$_Tree_node@V?$vector@HV?$allocator@H@std@@@std@@PEAX@std@@@1@AEBV?$vector@HV?$allocator@H@std@@@1@@Z ; std::_Tree<std::_Tset_traits<std::vector<int,std::allocator<int> >,std::less<std::vector<int,std::allocator<int> > >,std::allocator<std::vector<int,std::allocator<int> > >,0> >::_Find_lower_bound<std::vector<int,std::allocator<int> > >
PUBLIC	??$?MHV?$allocator@H@std@@@std@@YA_NAEBV?$vector@HV?$allocator@H@std@@@0@0@Z ; std::operator<<int,std::allocator<int> >
PUBLIC	??$_Construct_in_place@PEAU?$_Tree_node@HPEAX@std@@AEAPEAU12@@std@@YAXAEAPEAU?$_Tree_node@HPEAX@0@0@Z ; std::_Construct_in_place<std::_Tree_node<int,void *> *,std::_Tree_node<int,void *> * &>
PUBLIC	??$construct@HAEAH@?$_Default_allocator_traits@V?$allocator@U?$_Tree_node@HPEAX@std@@@std@@@std@@SAXAEAV?$allocator@U?$_Tree_node@HPEAX@std@@@1@QEAHAEAH@Z ; std::_Default_allocator_traits<std::allocator<std::_Tree_node<int,void *> > >::construct<int,int &>
PUBLIC	??$_Lower_bound_duplicate@H@?$_Tree@V?$_Tset_traits@HU?$less@H@std@@V?$allocator@H@2@$0A@@std@@@std@@IEBA_NQEAU?$_Tree_node@HPEAX@1@AEBH@Z ; std::_Tree<std::_Tset_traits<int,std::less<int>,std::allocator<int>,0> >::_Lower_bound_duplicate<int>
PUBLIC	??$_Find_lower_bound@H@?$_Tree@V?$_Tset_traits@HU?$less@H@std@@V?$allocator@H@2@$0A@@std@@@std@@IEBA?AU?$_Tree_find_result@PEAU?$_Tree_node@HPEAX@std@@@1@AEBH@Z ; std::_Tree<std::_Tset_traits<int,std::less<int>,std::allocator<int>,0> >::_Find_lower_bound<int>
PUBLIC	?_Max@?$_Tree_val@U?$_Tree_simple_types@H@std@@@std@@SAPEAU?$_Tree_node@HPEAX@2@PEAU32@@Z ; std::_Tree_val<std::_Tree_simple_types<int> >::_Max
PUBLIC	?_Get_first@?$_Compressed_pair@U?$less@H@std@@V?$_Compressed_pair@V?$allocator@U?$_Tree_node@HPEAX@std@@@std@@V?$_Tree_val@U?$_Tree_simple_types@H@std@@@2@$00@2@$00@std@@QEBAAEBU?$less@H@2@XZ ; std::_Compressed_pair<std::less<int>,std::_Compressed_pair<std::allocator<std::_Tree_node<int,void *> >,std::_Tree_val<std::_Tree_simple_types<int> >,1>,1>::_Get_first
PUBLIC	?_Max@?$_Tree_val@U?$_Tree_simple_types@V?$vector@HV?$allocator@H@std@@@std@@@std@@@std@@SAPEAU?$_Tree_node@V?$vector@HV?$allocator@H@std@@@std@@PEAX@2@PEAU32@@Z ; std::_Tree_val<std::_Tree_simple_types<std::vector<int,std::allocator<int> > > >::_Max
PUBLIC	?_Get_first@?$_Compressed_pair@U?$less@V?$vector@HV?$allocator@H@std@@@std@@@std@@V?$_Compressed_pair@V?$allocator@U?$_Tree_node@V?$vector@HV?$allocator@H@std@@@std@@PEAX@std@@@std@@V?$_Tree_val@U?$_Tree_simple_types@V?$vector@HV?$allocator@H@std@@@std@@@std@@@2@$00@2@$00@std@@QEBAAEBU?$less@V?$vector@HV?$allocator@H@std@@@std@@@2@XZ ; std::_Compressed_pair<std::less<std::vector<int,std::allocator<int> > >,std::_Compressed_pair<std::allocator<std::_Tree_node<std::vector<int,std::allocator<int> >,void *> >,std::_Tree_val<std::_Tree_simple_types<std::vector<int,std::allocator<int> > > >,1>,1>::_Get_first
PUBLIC	??0?$_Alloc_construct_ptr@V?$allocator@U?$_Tree_node@HPEAX@std@@@std@@@std@@QEAA@AEAV?$allocator@U?$_Tree_node@HPEAX@std@@@1@@Z ; std::_Alloc_construct_ptr<std::allocator<std::_Tree_node<int,void *> > >::_Alloc_construct_ptr<std::allocator<std::_Tree_node<int,void *> > >
PUBLIC	?_Allocate@?$_Alloc_construct_ptr@V?$allocator@U?$_Tree_node@HPEAX@std@@@std@@@std@@QEAAXXZ ; std::_Alloc_construct_ptr<std::allocator<std::_Tree_node<int,void *> > >::_Allocate
PUBLIC	??0?$_Alloc_construct_ptr@V?$allocator@U?$_Tree_node@V?$vector@HV?$allocator@H@std@@@std@@PEAX@std@@@std@@@std@@QEAA@AEAV?$allocator@U?$_Tree_node@V?$vector@HV?$allocator@H@std@@@std@@PEAX@std@@@1@@Z ; std::_Alloc_construct_ptr<std::allocator<std::_Tree_node<std::vector<int,std::allocator<int> >,void *> > >::_Alloc_construct_ptr<std::allocator<std::_Tree_node<std::vector<int,std::allocator<int> >,void *> > >
PUBLIC	?_Allocate@?$_Alloc_construct_ptr@V?$allocator@U?$_Tree_node@V?$vector@HV?$allocator@H@std@@@std@@PEAX@std@@@std@@@std@@QEAAXXZ ; std::_Alloc_construct_ptr<std::allocator<std::_Tree_node<std::vector<int,std::allocator<int> >,void *> > >::_Allocate
PUBLIC	?_Kfn@?$_Tset_traits@HU?$less@H@std@@V?$allocator@H@2@$0A@@std@@SAAEBHAEBH@Z ; std::_Tset_traits<int,std::less<int>,std::allocator<int>,0>::_Kfn
PUBLIC	?_Getcomp@?$_Tree@V?$_Tset_traits@HU?$less@H@std@@V?$allocator@H@2@$0A@@std@@@std@@IEBAAEBU?$less@H@2@XZ ; std::_Tree<std::_Tset_traits<int,std::less<int>,std::allocator<int>,0> >::_Getcomp
PUBLIC	?_Get_scary@?$_Tree@V?$_Tset_traits@HU?$less@H@std@@V?$allocator@H@2@$0A@@std@@@std@@IEBAPEBV?$_Tree_val@U?$_Tree_simple_types@H@std@@@2@XZ ; std::_Tree<std::_Tset_traits<int,std::less<int>,std::allocator<int>,0> >::_Get_scary
PUBLIC	??R?$less@H@std@@QEBA_NAEBH0@Z			; std::less<int>::operator()
PUBLIC	??F?$_Tree_unchecked_const_iterator@V?$_Tree_val@U?$_Tree_simple_types@H@std@@@std@@U_Iterator_base0@2@@std@@QEAAAEAV01@XZ ; std::_Tree_unchecked_const_iterator<std::_Tree_val<std::_Tree_simple_types<int> >,std::_Iterator_base0>::operator--
PUBLIC	?_Kfn@?$_Tset_traits@V?$vector@HV?$allocator@H@std@@@std@@U?$less@V?$vector@HV?$allocator@H@std@@@std@@@2@V?$allocator@V?$vector@HV?$allocator@H@std@@@std@@@2@$0A@@std@@SAAEBV?$vector@HV?$allocator@H@std@@@2@AEBV32@@Z ; std::_Tset_traits<std::vector<int,std::allocator<int> >,std::less<std::vector<int,std::allocator<int> > >,std::allocator<std::vector<int,std::allocator<int> > >,0>::_Kfn
PUBLIC	?_Getcomp@?$_Tree@V?$_Tset_traits@V?$vector@HV?$allocator@H@std@@@std@@U?$less@V?$vector@HV?$allocator@H@std@@@std@@@2@V?$allocator@V?$vector@HV?$allocator@H@std@@@std@@@2@$0A@@std@@@std@@IEBAAEBU?$less@V?$vector@HV?$allocator@H@std@@@std@@@2@XZ ; std::_Tree<std::_Tset_traits<std::vector<int,std::allocator<int> >,std::less<std::vector<int,std::allocator<int> > >,std::allocator<std::vector<int,std::allocator<int> > >,0> >::_Getcomp
PUBLIC	?_Get_scary@?$_Tree@V?$_Tset_traits@V?$vector@HV?$allocator@H@std@@@std@@U?$less@V?$vector@HV?$allocator@H@std@@@std@@@2@V?$allocator@V?$vector@HV?$allocator@H@std@@@std@@@2@$0A@@std@@@std@@IEBAPEBV?$_Tree_val@U?$_Tree_simple_types@V?$vector@HV?$allocator@H@std@@@std@@@std@@@2@XZ ; std::_Tree<std::_Tset_traits<std::vector<int,std::allocator<int> >,std::less<std::vector<int,std::allocator<int> > >,std::allocator<std::vector<int,std::allocator<int> > >,0> >::_Get_scary
PUBLIC	??R?$less@V?$vector@HV?$allocator@H@std@@@std@@@std@@QEBA_NAEBV?$vector@HV?$allocator@H@std@@@1@0@Z ; std::less<std::vector<int,std::allocator<int> > >::operator()
PUBLIC	??F?$_Tree_unchecked_const_iterator@V?$_Tree_val@U?$_Tree_simple_types@V?$vector@HV?$allocator@H@std@@@std@@@std@@@std@@U_Iterator_base0@2@@std@@QEAAAEAV01@XZ ; std::_Tree_unchecked_const_iterator<std::_Tree_val<std::_Tree_simple_types<std::vector<int,std::allocator<int> > > >,std::_Iterator_base0>::operator--
PUBLIC	??0?$_Tree_temp_node_alloc@V?$allocator@U?$_Tree_node@HPEAX@std@@@std@@@std@@QEAA@AEAV?$allocator@U?$_Tree_node@HPEAX@std@@@1@@Z ; std::_Tree_temp_node_alloc<std::allocator<std::_Tree_node<int,void *> > >::_Tree_temp_node_alloc<std::allocator<std::_Tree_node<int,void *> > >
PUBLIC	??0?$_Tree_temp_node_alloc@V?$allocator@U?$_Tree_node@V?$vector@HV?$allocator@H@std@@@std@@PEAX@std@@@std@@@std@@QEAA@AEAV?$allocator@U?$_Tree_node@V?$vector@HV?$allocator@H@std@@@std@@PEAX@std@@@1@@Z ; std::_Tree_temp_node_alloc<std::allocator<std::_Tree_node<std::vector<int,std::allocator<int> >,void *> > >::_Tree_temp_node_alloc<std::allocator<std::_Tree_node<std::vector<int,std::allocator<int> >,void *> > >
PUBLIC	??$exchange@PEAU?$_Tree_node@HPEAX@std@@$$T@std@@YAPEAU?$_Tree_node@HPEAX@0@AEAPEAU10@$$QEA$$T@Z ; std::exchange<std::_Tree_node<int,void *> *,std::nullptr_t>
PUBLIC	??$exchange@PEAU?$_Tree_node@V?$vector@HV?$allocator@H@std@@@std@@PEAX@std@@$$T@std@@YAPEAU?$_Tree_node@V?$vector@HV?$allocator@H@std@@@std@@PEAX@0@AEAPEAU10@$$QEA$$T@Z ; std::exchange<std::_Tree_node<std::vector<int,std::allocator<int> >,void *> *,std::nullptr_t>
PUBLIC	??$forward@PEAH@std@@YA$$QEAPEAHAEAPEAH@Z	; std::forward<int *>
PUBLIC	??$construct@HH@?$_Default_allocator_traits@V?$allocator@H@std@@@std@@SAXAEAV?$allocator@H@1@QEAH$$QEAH@Z ; std::_Default_allocator_traits<std::allocator<int> >::construct<int,int>
PUBLIC	??$forward@H@std@@YA$$QEAHAEAH@Z		; std::forward<int>
PUBLIC	??$equal@PEBHPEBHU?$equal_to@X@std@@@std@@YA_NQEBH00U?$equal_to@X@0@@Z ; std::equal<int const *,int const *,std::equal_to<void> >
PUBLIC	??$_Get_unwrapped_n@AEBQEBH_J@std@@YA?A_TAEBQEBH_J@Z ; std::_Get_unwrapped_n<int const * const &,__int64>
PUBLIC	??$_Idl_distance@PEBHPEBH@std@@YA?A_PAEBQEBH0@Z	; std::_Idl_distance<int const *,int const *>
PUBLIC	??$_Get_unwrapped@AEBQEBH@std@@YA?A_TAEBQEBH@Z	; std::_Get_unwrapped<int const * const &>
PUBLIC	??$construct@V?$vector@HV?$allocator@H@std@@@std@@AEBV12@@?$_Default_allocator_traits@V?$allocator@V?$vector@HV?$allocator@H@std@@@std@@@std@@@std@@SAXAEAV?$allocator@V?$vector@HV?$allocator@H@std@@@std@@@1@QEAV?$vector@HV?$allocator@H@std@@@1@AEBV31@@Z ; std::_Default_allocator_traits<std::allocator<std::vector<int,std::allocator<int> > > >::construct<std::vector<int,std::allocator<int> >,std::vector<int,std::allocator<int> > const &>
PUBLIC	??$forward@AEBV?$vector@HV?$allocator@H@std@@@std@@@std@@YAAEBV?$vector@HV?$allocator@H@std@@@0@AEBV10@@Z ; std::forward<std::vector<int,std::allocator<int> > const &>
PUBLIC	??$?0AEAV?$vector@HV?$allocator@H@std@@@std@@@?$_Tree_temp_node@V?$allocator@U?$_Tree_node@V?$vector@HV?$allocator@H@std@@@std@@PEAX@std@@@std@@@std@@QEAA@AEAV?$allocator@U?$_Tree_node@V?$vector@HV?$allocator@H@std@@@std@@PEAX@std@@@1@PEAU?$_Tree_node@V?$vector@HV?$allocator@H@std@@@std@@PEAX@1@AEAV?$vector@HV?$allocator@H@std@@@1@@Z ; std::_Tree_temp_node<std::allocator<std::_Tree_node<std::vector<int,std::allocator<int> >,void *> > >::_Tree_temp_node<std::allocator<std::_Tree_node<std::vector<int,std::allocator<int> >,void *> > ><std::vector<int,std::allocator<int> > &>
PUBLIC	??$forward@AEAV?$vector@HV?$allocator@H@std@@@std@@@std@@YAAEAV?$vector@HV?$allocator@H@std@@@0@AEAV10@@Z ; std::forward<std::vector<int,std::allocator<int> > &>
PUBLIC	??$_Find_hint@V?$vector@HV?$allocator@H@std@@@std@@@?$_Tree@V?$_Tset_traits@V?$vector@HV?$allocator@H@std@@@std@@U?$less@V?$vector@HV?$allocator@H@std@@@std@@@2@V?$allocator@V?$vector@HV?$allocator@H@std@@@std@@@2@$0A@@std@@@std@@IEBA?AU?$_Tree_find_hint_result@PEAU?$_Tree_node@V?$vector@HV?$allocator@H@std@@@std@@PEAX@std@@@1@QEAU?$_Tree_node@V?$vector@HV?$allocator@H@std@@@std@@PEAX@1@AEBV?$vector@HV?$allocator@H@std@@@1@@Z ; std::_Tree<std::_Tset_traits<std::vector<int,std::allocator<int> >,std::less<std::vector<int,std::allocator<int> > >,std::allocator<std::vector<int,std::allocator<int> > >,0> >::_Find_hint<std::vector<int,std::allocator<int> > >
PUBLIC	??$?0AEAH@?$_Tree_temp_node@V?$allocator@U?$_Tree_node@HPEAX@std@@@std@@@std@@QEAA@AEAV?$allocator@U?$_Tree_node@HPEAX@std@@@1@PEAU?$_Tree_node@HPEAX@1@AEAH@Z ; std::_Tree_temp_node<std::allocator<std::_Tree_node<int,void *> > >::_Tree_temp_node<std::allocator<std::_Tree_node<int,void *> > ><int &>
PUBLIC	??$_Find_hint@H@?$_Tree@V?$_Tset_traits@HU?$less@H@std@@V?$allocator@H@2@$0A@@std@@@std@@IEBA?AU?$_Tree_find_hint_result@PEAU?$_Tree_node@HPEAX@std@@@1@QEAU?$_Tree_node@HPEAX@1@AEBH@Z ; std::_Tree<std::_Tset_traits<int,std::less<int>,std::allocator<int>,0> >::_Find_hint<int>
PUBLIC	?_Get_first@?$_Compressed_pair@V?$allocator@U?$_Tree_node@HPEAX@std@@@std@@V?$_Tree_val@U?$_Tree_simple_types@H@std@@@2@$00@std@@QEBAAEBV?$allocator@U?$_Tree_node@HPEAX@std@@@2@XZ ; std::_Compressed_pair<std::allocator<std::_Tree_node<int,void *> >,std::_Tree_val<std::_Tree_simple_types<int> >,1>::_Get_first
PUBLIC	?_Get_first@?$_Compressed_pair@V?$allocator@U?$_Tree_node@V?$vector@HV?$allocator@H@std@@@std@@PEAX@std@@@std@@V?$_Tree_val@U?$_Tree_simple_types@V?$vector@HV?$allocator@H@std@@@std@@@std@@@2@$00@std@@QEBAAEBV?$allocator@U?$_Tree_node@V?$vector@HV?$allocator@H@std@@@std@@PEAX@std@@@2@XZ ; std::_Compressed_pair<std::allocator<std::_Tree_node<std::vector<int,std::allocator<int> >,void *> >,std::_Tree_val<std::_Tree_simple_types<std::vector<int,std::allocator<int> > > >,1>::_Get_first
PUBLIC	?deallocate@?$allocator@U?$_Tree_node@HPEAX@std@@@std@@QEAAXQEAU?$_Tree_node@HPEAX@2@_K@Z ; std::allocator<std::_Tree_node<int,void *> >::deallocate
PUBLIC	?max_size@?$_Default_allocator_traits@V?$allocator@U?$_Tree_node@HPEAX@std@@@std@@@std@@SA_KAEBV?$allocator@U?$_Tree_node@HPEAX@std@@@2@@Z ; std::_Default_allocator_traits<std::allocator<std::_Tree_node<int,void *> > >::max_size
PUBLIC	?_Getal@?$_Tree@V?$_Tset_traits@HU?$less@H@std@@V?$allocator@H@2@$0A@@std@@@std@@IEBAAEBV?$allocator@U?$_Tree_node@HPEAX@std@@@2@XZ ; std::_Tree<std::_Tset_traits<int,std::less<int>,std::allocator<int>,0> >::_Getal
PUBLIC	?deallocate@?$allocator@U?$_Tree_node@V?$vector@HV?$allocator@H@std@@@std@@PEAX@std@@@std@@QEAAXQEAU?$_Tree_node@V?$vector@HV?$allocator@H@std@@@std@@PEAX@2@_K@Z ; std::allocator<std::_Tree_node<std::vector<int,std::allocator<int> >,void *> >::deallocate
PUBLIC	?max_size@?$_Default_allocator_traits@V?$allocator@U?$_Tree_node@V?$vector@HV?$allocator@H@std@@@std@@PEAX@std@@@std@@@std@@SA_KAEBV?$allocator@U?$_Tree_node@V?$vector@HV?$allocator@H@std@@@std@@PEAX@std@@@2@@Z ; std::_Default_allocator_traits<std::allocator<std::_Tree_node<std::vector<int,std::allocator<int> >,void *> > >::max_size
PUBLIC	?_Getal@?$_Tree@V?$_Tset_traits@V?$vector@HV?$allocator@H@std@@@std@@U?$less@V?$vector@HV?$allocator@H@std@@@std@@@2@V?$allocator@V?$vector@HV?$allocator@H@std@@@std@@@2@$0A@@std@@@std@@IEBAAEBV?$allocator@U?$_Tree_node@V?$vector@HV?$allocator@H@std@@@std@@PEAX@std@@@2@XZ ; std::_Tree<std::_Tset_traits<std::vector<int,std::allocator<int> >,std::less<std::vector<int,std::allocator<int> > >,std::allocator<std::vector<int,std::allocator<int> > >,0> >::_Getal
PUBLIC	?max_size@?$_Tree@V?$_Tset_traits@HU?$less@H@std@@V?$allocator@H@2@$0A@@std@@@std@@QEBA_KXZ ; std::_Tree<std::_Tset_traits<int,std::less<int>,std::allocator<int>,0> >::max_size
PUBLIC	?_Lrotate@?$_Tree_val@U?$_Tree_simple_types@H@std@@@std@@QEAAXPEAU?$_Tree_node@HPEAX@2@@Z ; std::_Tree_val<std::_Tree_simple_types<int> >::_Lrotate
PUBLIC	?_Rrotate@?$_Tree_val@U?$_Tree_simple_types@H@std@@@std@@QEAAXPEAU?$_Tree_node@HPEAX@2@@Z ; std::_Tree_val<std::_Tree_simple_types<int> >::_Rrotate
PUBLIC	?max_size@?$_Tree@V?$_Tset_traits@V?$vector@HV?$allocator@H@std@@@std@@U?$less@V?$vector@HV?$allocator@H@std@@@std@@@2@V?$allocator@V?$vector@HV?$allocator@H@std@@@std@@@2@$0A@@std@@@std@@QEBA_KXZ ; std::_Tree<std::_Tset_traits<std::vector<int,std::allocator<int> >,std::less<std::vector<int,std::allocator<int> > >,std::allocator<std::vector<int,std::allocator<int> > >,0> >::max_size
PUBLIC	?_Lrotate@?$_Tree_val@U?$_Tree_simple_types@V?$vector@HV?$allocator@H@std@@@std@@@std@@@std@@QEAAXPEAU?$_Tree_node@V?$vector@HV?$allocator@H@std@@@std@@PEAX@2@@Z ; std::_Tree_val<std::_Tree_simple_types<std::vector<int,std::allocator<int> > > >::_Lrotate
PUBLIC	?_Rrotate@?$_Tree_val@U?$_Tree_simple_types@V?$vector@HV?$allocator@H@std@@@std@@@std@@@std@@QEAAXPEAU?$_Tree_node@V?$vector@HV?$allocator@H@std@@@std@@PEAX@2@@Z ; std::_Tree_val<std::_Tree_simple_types<std::vector<int,std::allocator<int> > > >::_Rrotate
PUBLIC	??1?$_Alloc_construct_ptr@V?$allocator@U?$_Tree_node@HPEAX@std@@@std@@@std@@QEAA@XZ ; std::_Alloc_construct_ptr<std::allocator<std::_Tree_node<int,void *> > >::~_Alloc_construct_ptr<std::allocator<std::_Tree_node<int,void *> > >
PUBLIC	??1?$_Alloc_construct_ptr@V?$allocator@U?$_Tree_node@V?$vector@HV?$allocator@H@std@@@std@@PEAX@std@@@std@@@std@@QEAA@XZ ; std::_Alloc_construct_ptr<std::allocator<std::_Tree_node<std::vector<int,std::allocator<int> >,void *> > >::~_Alloc_construct_ptr<std::allocator<std::_Tree_node<std::vector<int,std::allocator<int> >,void *> > >
PUBLIC	??1?$_Tree_temp_node_alloc@V?$allocator@U?$_Tree_node@HPEAX@std@@@std@@@std@@QEAA@XZ ; std::_Tree_temp_node_alloc<std::allocator<std::_Tree_node<int,void *> > >::~_Tree_temp_node_alloc<std::allocator<std::_Tree_node<int,void *> > >
PUBLIC	??1?$_Tree_temp_node_alloc@V?$allocator@U?$_Tree_node@V?$vector@HV?$allocator@H@std@@@std@@PEAX@std@@@std@@@std@@QEAA@XZ ; std::_Tree_temp_node_alloc<std::allocator<std::_Tree_node<std::vector<int,std::allocator<int> >,void *> > >::~_Tree_temp_node_alloc<std::allocator<std::_Tree_node<std::vector<int,std::allocator<int> >,void *> > >
PUBLIC	??0?$_Vector_val@U?$_Simple_types@H@std@@@std@@QEAA@PEAH00@Z ; std::_Vector_val<std::_Simple_types<int> >::_Vector_val<std::_Simple_types<int> >
PUBLIC	?_Check_grow_by_1@?$_Tree@V?$_Tset_traits@HU?$less@H@std@@V?$allocator@H@2@$0A@@std@@@std@@IEAAXXZ ; std::_Tree<std::_Tset_traits<int,std::less<int>,std::allocator<int>,0> >::_Check_grow_by_1
PUBLIC	?_Insert_node@?$_Tree_val@U?$_Tree_simple_types@H@std@@@std@@QEAAPEAU?$_Tree_node@HPEAX@2@U?$_Tree_id@PEAU?$_Tree_node@HPEAX@std@@@2@QEAU32@@Z ; std::_Tree_val<std::_Tree_simple_types<int> >::_Insert_node
PUBLIC	?_Check_grow_by_1@?$_Tree@V?$_Tset_traits@V?$vector@HV?$allocator@H@std@@@std@@U?$less@V?$vector@HV?$allocator@H@std@@@std@@@2@V?$allocator@V?$vector@HV?$allocator@H@std@@@std@@@2@$0A@@std@@@std@@IEAAXXZ ; std::_Tree<std::_Tset_traits<std::vector<int,std::allocator<int> >,std::less<std::vector<int,std::allocator<int> > >,std::allocator<std::vector<int,std::allocator<int> > >,0> >::_Check_grow_by_1
PUBLIC	?_Insert_node@?$_Tree_val@U?$_Tree_simple_types@V?$vector@HV?$allocator@H@std@@@std@@@std@@@std@@QEAAPEAU?$_Tree_node@V?$vector@HV?$allocator@H@std@@@std@@PEAX@2@U?$_Tree_id@PEAU?$_Tree_node@V?$vector@HV?$allocator@H@std@@@std@@PEAX@std@@@2@QEAU32@@Z ; std::_Tree_val<std::_Tree_simple_types<std::vector<int,std::allocator<int> > > >::_Insert_node
PUBLIC	?_Release@?$_Alloc_construct_ptr@V?$allocator@U?$_Tree_node@HPEAX@std@@@std@@@std@@QEAAPEAU?$_Tree_node@HPEAX@2@XZ ; std::_Alloc_construct_ptr<std::allocator<std::_Tree_node<int,void *> > >::_Release
PUBLIC	??1?$_Tree_temp_node@V?$allocator@U?$_Tree_node@HPEAX@std@@@std@@@std@@QEAA@XZ ; std::_Tree_temp_node<std::allocator<std::_Tree_node<int,void *> > >::~_Tree_temp_node<std::allocator<std::_Tree_node<int,void *> > >
PUBLIC	?_Extract@?$_In_place_key_extract_set@HH@std@@SAAEBHAEBH@Z ; std::_In_place_key_extract_set<int,int>::_Extract
PUBLIC	?_Release@?$_Alloc_construct_ptr@V?$allocator@U?$_Tree_node@V?$vector@HV?$allocator@H@std@@@std@@PEAX@std@@@std@@@std@@QEAAPEAU?$_Tree_node@V?$vector@HV?$allocator@H@std@@@std@@PEAX@2@XZ ; std::_Alloc_construct_ptr<std::allocator<std::_Tree_node<std::vector<int,std::allocator<int> >,void *> > >::_Release
PUBLIC	??1?$_Tree_temp_node@V?$allocator@U?$_Tree_node@V?$vector@HV?$allocator@H@std@@@std@@PEAX@std@@@std@@@std@@QEAA@XZ ; std::_Tree_temp_node<std::allocator<std::_Tree_node<std::vector<int,std::allocator<int> >,void *> > >::~_Tree_temp_node<std::allocator<std::_Tree_node<std::vector<int,std::allocator<int> >,void *> > >
PUBLIC	?_Extract@?$_In_place_key_extract_set@V?$vector@HV?$allocator@H@std@@@std@@V12@@std@@SAAEBV?$vector@HV?$allocator@H@std@@@2@AEBV32@@Z ; std::_In_place_key_extract_set<std::vector<int,std::allocator<int> >,std::vector<int,std::allocator<int> > >::_Extract
PUBLIC	??$?0V?$allocator@H@std@@PEAHPEAHPEAH@?$_Compressed_pair@V?$allocator@H@std@@V?$_Vector_val@U?$_Simple_types@H@std@@@2@$00@std@@QEAA@U_One_then_variadic_args_t@1@$$QEAV?$allocator@H@1@$$QEAPEAH22@Z ; std::_Compressed_pair<std::allocator<int>,std::_Vector_val<std::_Simple_types<int> >,1>::_Compressed_pair<std::allocator<int>,std::_Vector_val<std::_Simple_types<int> >,1><std::allocator<int>,int *,int *,int *>
PUBLIC	??$exchange@PEAH$$T@std@@YAPEAHAEAPEAH$$QEA$$T@Z ; std::exchange<int *,std::nullptr_t>
PUBLIC	??$_Copy_n_unchecked4@PEAH_KPEAH@std@@YAPEAHPEAH_K0@Z ; std::_Copy_n_unchecked4<int *,unsigned __int64,int *>
PUBLIC	??$_Copy_memmove_n@PEAHPEAH@std@@YAPEAHPEAH_K0@Z ; std::_Copy_memmove_n<int *,int *>
PUBLIC	??$_Uninitialized_copy_n@PEAHV?$allocator@H@std@@@std@@YAPEAHPEAH_K0AEAV?$allocator@H@0@@Z ; std::_Uninitialized_copy_n<int *,std::allocator<int> >
PUBLIC	??$forward@AEBQEAU?$_Tree_node@HPEAX@std@@@std@@YAAEBQEAU?$_Tree_node@HPEAX@0@AEBQEAU10@@Z ; std::forward<std::_Tree_node<int,void *> * const &>
PUBLIC	??$_Voidify_iter@PEAPEAU?$_Tree_node@HPEAX@std@@@std@@YAPEAXPEAPEAU?$_Tree_node@HPEAX@0@@Z ; std::_Voidify_iter<std::_Tree_node<int,void *> * *>
PUBLIC	??$addressof@PEAU?$_Tree_node@HPEAX@std@@@std@@YAPEAPEAU?$_Tree_node@HPEAX@0@AEAPEAU10@@Z ; std::addressof<std::_Tree_node<int,void *> *>
PUBLIC	??$forward@AEBQEAU?$_Tree_node@V?$vector@HV?$allocator@H@std@@@std@@PEAX@std@@@std@@YAAEBQEAU?$_Tree_node@V?$vector@HV?$allocator@H@std@@@std@@PEAX@0@AEBQEAU10@@Z ; std::forward<std::_Tree_node<std::vector<int,std::allocator<int> >,void *> * const &>
PUBLIC	??$_Voidify_iter@PEAPEAU?$_Tree_node@V?$vector@HV?$allocator@H@std@@@std@@PEAX@std@@@std@@YAPEAXPEAPEAU?$_Tree_node@V?$vector@HV?$allocator@H@std@@@std@@PEAX@0@@Z ; std::_Voidify_iter<std::_Tree_node<std::vector<int,std::allocator<int> >,void *> * *>
PUBLIC	??$addressof@PEAU?$_Tree_node@V?$vector@HV?$allocator@H@std@@@std@@PEAX@std@@@std@@YAPEAPEAU?$_Tree_node@V?$vector@HV?$allocator@H@std@@@std@@PEAX@0@AEAPEAU10@@Z ; std::addressof<std::_Tree_node<std::vector<int,std::allocator<int> >,void *> *>
PUBLIC	??$construct@HAEAH@?$_Default_allocator_traits@V?$allocator@H@std@@@std@@SAXAEAV?$allocator@H@1@QEAHAEAH@Z ; std::_Default_allocator_traits<std::allocator<int> >::construct<int,int &>
PUBLIC	??$forward@AEAH@std@@YAAEAHAEAH@Z		; std::forward<int &>
PUBLIC	??$_Voidify_iter@PEAH@std@@YAPEAXPEAH@Z		; std::_Voidify_iter<int *>
PUBLIC	??$construct@H$$V@?$_Default_allocator_traits@V?$allocator@H@std@@@std@@SAXAEAV?$allocator@H@1@QEAH@Z ; std::_Default_allocator_traits<std::allocator<int> >::construct<int>
PUBLIC	??$_Emplace_back@H@?$_Uninitialized_backout_al@V?$allocator@H@std@@@std@@QEAAX$$QEAH@Z ; std::_Uninitialized_backout_al<std::allocator<int> >::_Emplace_back<int>
PUBLIC	??$_Emplace_back@V?$vector@HV?$allocator@H@std@@@std@@@?$_Uninitialized_backout_al@V?$allocator@V?$vector@HV?$allocator@H@std@@@std@@@std@@@std@@QEAAX$$QEAV?$vector@HV?$allocator@H@std@@@1@@Z ; std::_Uninitialized_backout_al<std::allocator<std::vector<int,std::allocator<int> > > >::_Emplace_back<std::vector<int,std::allocator<int> > >
PUBLIC	??$_Voidify_iter@PEAV?$vector@HV?$allocator@H@std@@@std@@@std@@YAPEAXPEAV?$vector@HV?$allocator@H@std@@@0@@Z ; std::_Voidify_iter<std::vector<int,std::allocator<int> > *>
PUBLIC	??$destroy@H@?$_Default_allocator_traits@V?$allocator@U?$_Tree_node@HPEAX@std@@@std@@@std@@SAXAEAV?$allocator@U?$_Tree_node@HPEAX@std@@@1@QEAH@Z ; std::_Default_allocator_traits<std::allocator<std::_Tree_node<int,void *> > >::destroy<int>
PUBLIC	??$addressof@H@std@@YAPEAHAEAH@Z		; std::addressof<int>
PUBLIC	??$destroy@V?$vector@HV?$allocator@H@std@@@std@@@?$_Default_allocator_traits@V?$allocator@U?$_Tree_node@V?$vector@HV?$allocator@H@std@@@std@@PEAX@std@@@std@@@std@@SAXAEAV?$allocator@U?$_Tree_node@V?$vector@HV?$allocator@H@std@@@std@@PEAX@std@@@1@QEAV?$vector@HV?$allocator@H@std@@@1@@Z ; std::_Default_allocator_traits<std::allocator<std::_Tree_node<std::vector<int,std::allocator<int> >,void *> > >::destroy<std::vector<int,std::allocator<int> > >
PUBLIC	??$equal@PEBHPEBH@std@@YA_NQEBH00@Z		; std::equal<int const *,int const *>
PUBLIC	??$_Emplace_back@AEBV?$vector@HV?$allocator@H@std@@@std@@@?$_Uninitialized_backout_al@V?$allocator@V?$vector@HV?$allocator@H@std@@@std@@@std@@@std@@QEAAXAEBV?$vector@HV?$allocator@H@std@@@1@@Z ; std::_Uninitialized_backout_al<std::allocator<std::vector<int,std::allocator<int> > > >::_Emplace_back<std::vector<int,std::allocator<int> > const &>
PUBLIC	??$_Emplace_hint@AEAV?$vector@HV?$allocator@H@std@@@std@@@?$_Tree@V?$_Tset_traits@V?$vector@HV?$allocator@H@std@@@std@@U?$less@V?$vector@HV?$allocator@H@std@@@std@@@2@V?$allocator@V?$vector@HV?$allocator@H@std@@@std@@@2@$0A@@std@@@std@@IEAAPEAU?$_Tree_node@V?$vector@HV?$allocator@H@std@@@std@@PEAX@1@QEAU21@AEAV?$vector@HV?$allocator@H@std@@@1@@Z ; std::_Tree<std::_Tset_traits<std::vector<int,std::allocator<int> >,std::less<std::vector<int,std::allocator<int> > >,std::allocator<std::vector<int,std::allocator<int> > >,0> >::_Emplace_hint<std::vector<int,std::allocator<int> > &>
PUBLIC	??$_Emplace_hint@AEAH@?$_Tree@V?$_Tset_traits@HU?$less@H@std@@V?$allocator@H@2@$0A@@std@@@std@@IEAAPEAU?$_Tree_node@HPEAX@1@QEAU21@AEAH@Z ; std::_Tree<std::_Tset_traits<int,std::less<int>,std::allocator<int>,0> >::_Emplace_hint<int &>
PUBLIC	??0?$vector@HV?$allocator@H@std@@@std@@QEAA@$$QEAV01@@Z ; std::vector<int,std::allocator<int> >::vector<int,std::allocator<int> >
PUBLIC	?_Unchecked_begin@?$vector@HV?$allocator@H@std@@@std@@QEBAPEBHXZ ; std::vector<int,std::allocator<int> >::_Unchecked_begin
PUBLIC	?_Unchecked_end@?$vector@HV?$allocator@H@std@@@std@@QEBAPEBHXZ ; std::vector<int,std::allocator<int> >::_Unchecked_end
PUBLIC	??0?$allocator@U?$_Tree_node@HPEAX@std@@@std@@QEAA@XZ ; std::allocator<std::_Tree_node<int,void *> >::allocator<std::_Tree_node<int,void *> >
PUBLIC	??0?$_Tree_val@U?$_Tree_simple_types@H@std@@@std@@QEAA@XZ ; std::_Tree_val<std::_Tree_simple_types<int> >::_Tree_val<std::_Tree_simple_types<int> >
PUBLIC	??0?$allocator@U?$_Tree_node@V?$vector@HV?$allocator@H@std@@@std@@PEAX@std@@@std@@QEAA@XZ ; std::allocator<std::_Tree_node<std::vector<int,std::allocator<int> >,void *> >::allocator<std::_Tree_node<std::vector<int,std::allocator<int> >,void *> >
PUBLIC	??0?$_Tree_val@U?$_Tree_simple_types@V?$vector@HV?$allocator@H@std@@@std@@@std@@@std@@QEAA@XZ ; std::_Tree_val<std::_Tree_simple_types<std::vector<int,std::allocator<int> > > >::_Tree_val<std::_Tree_simple_types<std::vector<int,std::allocator<int> > > >
PUBLIC	??0?$_Uninitialized_backout_al@V?$allocator@V?$vector@HV?$allocator@H@std@@@std@@@std@@@std@@QEAA@PEAV?$vector@HV?$allocator@H@std@@@1@AEAV?$allocator@V?$vector@HV?$allocator@H@std@@@std@@@1@@Z ; std::_Uninitialized_backout_al<std::allocator<std::vector<int,std::allocator<int> > > >::_Uninitialized_backout_al<std::allocator<std::vector<int,std::allocator<int> > > >
PUBLIC	??1?$_Uninitialized_backout_al@V?$allocator@V?$vector@HV?$allocator@H@std@@@std@@@std@@@std@@QEAA@XZ ; std::_Uninitialized_backout_al<std::allocator<std::vector<int,std::allocator<int> > > >::~_Uninitialized_backout_al<std::allocator<std::vector<int,std::allocator<int> > > >
PUBLIC	?_Release@?$_Uninitialized_backout_al@V?$allocator@V?$vector@HV?$allocator@H@std@@@std@@@std@@@std@@QEAAPEAV?$vector@HV?$allocator@H@std@@@2@XZ ; std::_Uninitialized_backout_al<std::allocator<std::vector<int,std::allocator<int> > > >::_Release
PUBLIC	?__autoclassinit2@?$_Uninitialized_backout_al@V?$allocator@V?$vector@HV?$allocator@H@std@@@std@@@std@@@std@@QEAAX_K@Z ; std::_Uninitialized_backout_al<std::allocator<std::vector<int,std::allocator<int> > > >::__autoclassinit2
PUBLIC	??$_Assign_counted_range@PEAH@?$vector@HV?$allocator@H@std@@@std@@AEAAXPEAH_K@Z ; std::vector<int,std::allocator<int> >::_Assign_counted_range<int *>
PUBLIC	??$_Pocca@V?$allocator@H@std@@@std@@YAXAEAV?$allocator@H@0@AEBV10@@Z ; std::_Pocca<std::allocator<int> >
PUBLIC	??$addressof@$$CBV?$vector@HV?$allocator@H@std@@@std@@@std@@YAPEBV?$vector@HV?$allocator@H@std@@@0@AEBV10@@Z ; std::addressof<std::vector<int,std::allocator<int> > const >
PUBLIC	??$_Get_size_of_n@$0BI@@std@@YA_K_K@Z		; std::_Get_size_of_n<24>
PUBLIC	??$_Get_size_of_n@$0CA@@std@@YA_K_K@Z		; std::_Get_size_of_n<32>
PUBLIC	??$_Refancy@PEAV?$vector@HV?$allocator@H@std@@@std@@$0A@@std@@YAPEAV?$vector@HV?$allocator@H@std@@@0@PEAV10@@Z ; std::_Refancy<std::vector<int,std::allocator<int> > *,0>
PUBLIC	??$_Get_size_of_n@$0DI@@std@@YA_K_K@Z		; std::_Get_size_of_n<56>
PUBLIC	??$_Construct_in_place@PEAU?$_Tree_node@HPEAX@std@@AEBQEAU12@@std@@YAXAEAPEAU?$_Tree_node@HPEAX@0@AEBQEAU10@@Z ; std::_Construct_in_place<std::_Tree_node<int,void *> *,std::_Tree_node<int,void *> * const &>
PUBLIC	??$_Construct_in_place@PEAU?$_Tree_node@V?$vector@HV?$allocator@H@std@@@std@@PEAX@std@@AEBQEAU12@@std@@YAXAEAPEAU?$_Tree_node@V?$vector@HV?$allocator@H@std@@@std@@PEAX@0@AEBQEAU10@@Z ; std::_Construct_in_place<std::_Tree_node<std::vector<int,std::allocator<int> >,void *> *,std::_Tree_node<std::vector<int,std::allocator<int> >,void *> * const &>
PUBLIC	??$_Allocate_manually_vector_aligned@U_Default_allocate_traits@std@@@std@@YAPEAX_K@Z ; std::_Allocate_manually_vector_aligned<std::_Default_allocate_traits>
PUBLIC	??$forward@AEBU?$less@H@std@@@std@@YAAEBU?$less@H@0@AEBU10@@Z ; std::forward<std::less<int> const &>
PUBLIC	??$forward@U_Zero_then_variadic_args_t@std@@@std@@YA$$QEAU_Zero_then_variadic_args_t@0@AEAU10@@Z ; std::forward<std::_Zero_then_variadic_args_t>
PUBLIC	??$forward@AEBU?$less@V?$vector@HV?$allocator@H@std@@@std@@@std@@@std@@YAAEBU?$less@V?$vector@HV?$allocator@H@std@@@std@@@0@AEBU10@@Z ; std::forward<std::less<std::vector<int,std::allocator<int> > > const &>
PUBLIC	??$_Fill_zero_memset@PEAH@std@@YAXPEAH_K@Z	; std::_Fill_zero_memset<int *>
PUBLIC	??$_Is_all_bits_zero@H@std@@YA_NAEBH@Z		; std::_Is_all_bits_zero<int>
PUBLIC	??$_Emplace_back@AEAH@?$_Uninitialized_backout_al@V?$allocator@H@std@@@std@@QEAAXAEAH@Z ; std::_Uninitialized_backout_al<std::allocator<int> >::_Emplace_back<int &>
PUBLIC	??$_Copy_memmove@PEAHPEAH@std@@YAPEAHPEAH00@Z	; std::_Copy_memmove<int *,int *>
PUBLIC	??$move@AEAPEAH@std@@YA$$QEAPEAHAEAPEAH@Z	; std::move<int * &>
PUBLIC	??$construct@HAEBH@?$_Default_allocator_traits@V?$allocator@H@std@@@std@@SAXAEAV?$allocator@H@1@QEAHAEBH@Z ; std::_Default_allocator_traits<std::allocator<int> >::construct<int,int const &>
PUBLIC	??$_Construct_in_place@HAEBH@std@@YAXAEAHAEBH@Z	; std::_Construct_in_place<int,int const &>
PUBLIC	??$_To_address@PEBH@std@@YA?A_PAEBQEBH@Z	; std::_To_address<int const *>
PUBLIC	??$_Copy_memmove@PEBHPEAH@std@@YAPEAHPEBH0PEAH@Z ; std::_Copy_memmove<int const *,int *>
PUBLIC	??$_Emplace_back@AEBH@?$_Uninitialized_backout_al@V?$allocator@H@std@@@std@@QEAAXAEBH@Z ; std::_Uninitialized_backout_al<std::allocator<int> >::_Emplace_back<int const &>
PUBLIC	??$_Emplace_back@$$V@?$_Uninitialized_backout_al@V?$allocator@H@std@@@std@@QEAAXXZ ; std::_Uninitialized_backout_al<std::allocator<int> >::_Emplace_back<>
PUBLIC	??$_Zero_range@PEAH@std@@YAPEAHQEAH0@Z		; std::_Zero_range<int *>
PUBLIC	??$_Uninitialized_move@PEAHV?$allocator@H@std@@@std@@YAPEAHQEAH0PEAHAEAV?$allocator@H@0@@Z ; std::_Uninitialized_move<int *,std::allocator<int> >
PUBLIC	??$_Get_unwrapped@AEBQEAH@std@@YA?A_TAEBQEAH@Z	; std::_Get_unwrapped<int * const &>
PUBLIC	??$_Uninitialized_move@PEAV?$vector@HV?$allocator@H@std@@@std@@V?$allocator@V?$vector@HV?$allocator@H@std@@@std@@@2@@std@@YAPEAV?$vector@HV?$allocator@H@std@@@0@QEAV10@0PEAV10@AEAV?$allocator@V?$vector@HV?$allocator@H@std@@@std@@@0@@Z ; std::_Uninitialized_move<std::vector<int,std::allocator<int> > *,std::allocator<std::vector<int,std::allocator<int> > > >
PUBLIC	??$_Get_unwrapped@AEBQEAV?$vector@HV?$allocator@H@std@@@std@@@std@@YA?A_TAEBQEAV?$vector@HV?$allocator@H@std@@@0@@Z ; std::_Get_unwrapped<std::vector<int,std::allocator<int> > * const &>
PUBLIC	??$construct@V?$vector@HV?$allocator@H@std@@@std@@V12@@?$_Default_allocator_traits@V?$allocator@V?$vector@HV?$allocator@H@std@@@std@@@std@@@std@@SAXAEAV?$allocator@V?$vector@HV?$allocator@H@std@@@std@@@1@QEAV?$vector@HV?$allocator@H@std@@@1@$$QEAV31@@Z ; std::_Default_allocator_traits<std::allocator<std::vector<int,std::allocator<int> > > >::construct<std::vector<int,std::allocator<int> >,std::vector<int,std::allocator<int> > >
PUBLIC	??$_Construct_in_place@V?$vector@HV?$allocator@H@std@@@std@@V12@@std@@YAXAEAV?$vector@HV?$allocator@H@std@@@0@$$QEAV10@@Z ; std::_Construct_in_place<std::vector<int,std::allocator<int> >,std::vector<int,std::allocator<int> > >
PUBLIC	??$_Destroy_in_place@PEAU?$_Tree_node@HPEAX@std@@@std@@YAXAEAPEAU?$_Tree_node@HPEAX@0@@Z ; std::_Destroy_in_place<std::_Tree_node<int,void *> *>
PUBLIC	??$_Freenode@V?$allocator@U?$_Tree_node@HPEAX@std@@@std@@@?$_Tree_node@HPEAX@std@@SAXAEAV?$allocator@U?$_Tree_node@HPEAX@std@@@1@PEAU01@@Z ; std::_Tree_node<int,void *>::_Freenode<std::allocator<std::_Tree_node<int,void *> > >
PUBLIC	??$exchange@PEAU?$_Tree_node@HPEAX@std@@AEAPEAU12@@std@@YAPEAU?$_Tree_node@HPEAX@0@AEAPEAU10@0@Z ; std::exchange<std::_Tree_node<int,void *> *,std::_Tree_node<int,void *> * &>
PUBLIC	??$_Destroy_in_place@PEAU?$_Tree_node@V?$vector@HV?$allocator@H@std@@@std@@PEAX@std@@@std@@YAXAEAPEAU?$_Tree_node@V?$vector@HV?$allocator@H@std@@@std@@PEAX@0@@Z ; std::_Destroy_in_place<std::_Tree_node<std::vector<int,std::allocator<int> >,void *> *>
PUBLIC	??$_Freenode@V?$allocator@U?$_Tree_node@V?$vector@HV?$allocator@H@std@@@std@@PEAX@std@@@std@@@?$_Tree_node@V?$vector@HV?$allocator@H@std@@@std@@PEAX@std@@SAXAEAV?$allocator@U?$_Tree_node@V?$vector@HV?$allocator@H@std@@@std@@PEAX@std@@@1@PEAU01@@Z ; std::_Tree_node<std::vector<int,std::allocator<int> >,void *>::_Freenode<std::allocator<std::_Tree_node<std::vector<int,std::allocator<int> >,void *> > >
PUBLIC	??$exchange@PEAU?$_Tree_node@V?$vector@HV?$allocator@H@std@@@std@@PEAX@std@@AEAPEAU12@@std@@YAPEAU?$_Tree_node@V?$vector@HV?$allocator@H@std@@@std@@PEAX@0@AEAPEAU10@0@Z ; std::exchange<std::_Tree_node<std::vector<int,std::allocator<int> >,void *> *,std::_Tree_node<std::vector<int,std::allocator<int> >,void *> * &>
PUBLIC	??$?8HV?$allocator@H@std@@@std@@YA_NAEBV?$vector@HV?$allocator@H@std@@@0@0@Z ; std::operator==<int,std::allocator<int> >
PUBLIC	??$_Copy_n_unchecked4@V?$_Tree_unchecked_const_iterator@V?$_Tree_val@U?$_Tree_simple_types@V?$vector@HV?$allocator@H@std@@@std@@@std@@@std@@U_Iterator_base0@2@@std@@_KPEAV?$vector@HV?$allocator@H@std@@@2@@std@@YAPEAV?$vector@HV?$allocator@H@std@@@0@V?$_Tree_unchecked_const_iterator@V?$_Tree_val@U?$_Tree_simple_types@V?$vector@HV?$allocator@H@std@@@std@@@std@@@std@@U_Iterator_base0@2@@0@_KPEAV10@@Z ; std::_Copy_n_unchecked4<std::_Tree_unchecked_const_iterator<std::_Tree_val<std::_Tree_simple_types<std::vector<int,std::allocator<int> > > >,std::_Iterator_base0>,unsigned __int64,std::vector<int,std::allocator<int> > *>
PUBLIC	??$_Uninitialized_copy_n@V?$_Tree_unchecked_const_iterator@V?$_Tree_val@U?$_Tree_simple_types@V?$vector@HV?$allocator@H@std@@@std@@@std@@@std@@U_Iterator_base0@2@@std@@V?$allocator@V?$vector@HV?$allocator@H@std@@@std@@@2@@std@@YAPEAV?$vector@HV?$allocator@H@std@@@0@V?$_Tree_unchecked_const_iterator@V?$_Tree_val@U?$_Tree_simple_types@V?$vector@HV?$allocator@H@std@@@std@@@std@@@std@@U_Iterator_base0@2@@0@_KPEAV10@AEAV?$allocator@V?$vector@HV?$allocator@H@std@@@std@@@0@@Z ; std::_Uninitialized_copy_n<std::_Tree_unchecked_const_iterator<std::_Tree_val<std::_Tree_simple_types<std::vector<int,std::allocator<int> > > >,std::_Iterator_base0>,std::allocator<std::vector<int,std::allocator<int> > > >
PUBLIC	??$_Get_unwrapped@V?$_Tree_unchecked_const_iterator@V?$_Tree_val@U?$_Tree_simple_types@V?$vector@HV?$allocator@H@std@@@std@@@std@@@std@@U_Iterator_base0@2@@std@@@std@@YA?A_T$$QEAV?$_Tree_unchecked_const_iterator@V?$_Tree_val@U?$_Tree_simple_types@V?$vector@HV?$allocator@H@std@@@std@@@std@@@std@@U_Iterator_base0@2@@0@@Z ; std::_Get_unwrapped<std::_Tree_unchecked_const_iterator<std::_Tree_val<std::_Tree_simple_types<std::vector<int,std::allocator<int> > > >,std::_Iterator_base0> >
PUBLIC	??$move@AEAV?$_Tree_unchecked_const_iterator@V?$_Tree_val@U?$_Tree_simple_types@V?$vector@HV?$allocator@H@std@@@std@@@std@@@std@@U_Iterator_base0@2@@std@@@std@@YA$$QEAV?$_Tree_unchecked_const_iterator@V?$_Tree_val@U?$_Tree_simple_types@V?$vector@HV?$allocator@H@std@@@std@@@std@@@std@@U_Iterator_base0@2@@0@AEAV10@@Z ; std::move<std::_Tree_unchecked_const_iterator<std::_Tree_val<std::_Tree_simple_types<std::vector<int,std::allocator<int> > > >,std::_Iterator_base0> &>
PUBLIC	??$_Adl_verify_range@V?$_Tree_unchecked_const_iterator@V?$_Tree_val@U?$_Tree_simple_types@V?$vector@HV?$allocator@H@std@@@std@@@std@@@std@@U_Iterator_base0@2@@std@@V12@@std@@YAXAEBV?$_Tree_unchecked_const_iterator@V?$_Tree_val@U?$_Tree_simple_types@V?$vector@HV?$allocator@H@std@@@std@@@std@@@std@@U_Iterator_base0@2@@0@0@Z ; std::_Adl_verify_range<std::_Tree_unchecked_const_iterator<std::_Tree_val<std::_Tree_simple_types<std::vector<int,std::allocator<int> > > >,std::_Iterator_base0>,std::_Tree_unchecked_const_iterator<std::_Tree_val<std::_Tree_simple_types<std::vector<int,std::allocator<int> > > >,std::_Iterator_base0> >
PUBLIC	??$_Insert_range_unchecked@PEAV?$vector@HV?$allocator@H@std@@@std@@PEAV12@@?$_Tree@V?$_Tset_traits@V?$vector@HV?$allocator@H@std@@@std@@U?$less@V?$vector@HV?$allocator@H@std@@@std@@@2@V?$allocator@V?$vector@HV?$allocator@H@std@@@std@@@2@$0A@@std@@@std@@IEAAXPEAV?$vector@HV?$allocator@H@std@@@1@QEAV21@@Z ; std::_Tree<std::_Tset_traits<std::vector<int,std::allocator<int> >,std::less<std::vector<int,std::allocator<int> > >,std::allocator<std::vector<int,std::allocator<int> > >,0> >::_Insert_range_unchecked<std::vector<int,std::allocator<int> > *,std::vector<int,std::allocator<int> > *>
PUBLIC	??$_Copy_n_unchecked4@V?$_Tree_unchecked_const_iterator@V?$_Tree_val@U?$_Tree_simple_types@H@std@@@std@@U_Iterator_base0@2@@std@@_KPEAH@std@@YAPEAHV?$_Tree_unchecked_const_iterator@V?$_Tree_val@U?$_Tree_simple_types@H@std@@@std@@U_Iterator_base0@2@@0@_KPEAH@Z ; std::_Copy_n_unchecked4<std::_Tree_unchecked_const_iterator<std::_Tree_val<std::_Tree_simple_types<int> >,std::_Iterator_base0>,unsigned __int64,int *>
PUBLIC	??$_Uninitialized_copy_n@V?$_Tree_unchecked_const_iterator@V?$_Tree_val@U?$_Tree_simple_types@H@std@@@std@@U_Iterator_base0@2@@std@@V?$allocator@H@2@@std@@YAPEAHV?$_Tree_unchecked_const_iterator@V?$_Tree_val@U?$_Tree_simple_types@H@std@@@std@@U_Iterator_base0@2@@0@_KPEAHAEAV?$allocator@H@0@@Z ; std::_Uninitialized_copy_n<std::_Tree_unchecked_const_iterator<std::_Tree_val<std::_Tree_simple_types<int> >,std::_Iterator_base0>,std::allocator<int> >
PUBLIC	??$_Get_unwrapped@V?$_Tree_unchecked_const_iterator@V?$_Tree_val@U?$_Tree_simple_types@H@std@@@std@@U_Iterator_base0@2@@std@@@std@@YA?A_T$$QEAV?$_Tree_unchecked_const_iterator@V?$_Tree_val@U?$_Tree_simple_types@H@std@@@std@@U_Iterator_base0@2@@0@@Z ; std::_Get_unwrapped<std::_Tree_unchecked_const_iterator<std::_Tree_val<std::_Tree_simple_types<int> >,std::_Iterator_base0> >
PUBLIC	??$move@AEAV?$_Tree_unchecked_const_iterator@V?$_Tree_val@U?$_Tree_simple_types@H@std@@@std@@U_Iterator_base0@2@@std@@@std@@YA$$QEAV?$_Tree_unchecked_const_iterator@V?$_Tree_val@U?$_Tree_simple_types@H@std@@@std@@U_Iterator_base0@2@@0@AEAV10@@Z ; std::move<std::_Tree_unchecked_const_iterator<std::_Tree_val<std::_Tree_simple_types<int> >,std::_Iterator_base0> &>
PUBLIC	??$_Adl_verify_range@V?$_Tree_unchecked_const_iterator@V?$_Tree_val@U?$_Tree_simple_types@H@std@@@std@@U_Iterator_base0@2@@std@@V12@@std@@YAXAEBV?$_Tree_unchecked_const_iterator@V?$_Tree_val@U?$_Tree_simple_types@H@std@@@std@@U_Iterator_base0@2@@0@0@Z ; std::_Adl_verify_range<std::_Tree_unchecked_const_iterator<std::_Tree_val<std::_Tree_simple_types<int> >,std::_Iterator_base0>,std::_Tree_unchecked_const_iterator<std::_Tree_val<std::_Tree_simple_types<int> >,std::_Iterator_base0> >
PUBLIC	??$_Insert_range_unchecked@PEAHPEAH@?$_Tree@V?$_Tset_traits@HU?$less@H@std@@V?$allocator@H@2@$0A@@std@@@std@@IEAAXPEAHQEAH@Z ; std::_Tree<std::_Tset_traits<int,std::less<int>,std::allocator<int>,0> >::_Insert_range_unchecked<int *,int *>
PUBLIC	??$_Adl_verify_range@V?$_Vector_iterator@V?$_Vector_val@U?$_Simple_types@H@std@@@std@@@std@@V12@@std@@YAXAEBV?$_Vector_iterator@V?$_Vector_val@U?$_Simple_types@H@std@@@std@@@0@0@Z ; std::_Adl_verify_range<std::_Vector_iterator<std::_Vector_val<std::_Simple_types<int> > >,std::_Vector_iterator<std::_Vector_val<std::_Simple_types<int> > > >
PUBLIC	??$?0$$V@?$_Compressed_pair@V?$allocator@U?$_Tree_node@HPEAX@std@@@std@@V?$_Tree_val@U?$_Tree_simple_types@H@std@@@2@$00@std@@QEAA@U_Zero_then_variadic_args_t@1@@Z ; std::_Compressed_pair<std::allocator<std::_Tree_node<int,void *> >,std::_Tree_val<std::_Tree_simple_types<int> >,1>::_Compressed_pair<std::allocator<std::_Tree_node<int,void *> >,std::_Tree_val<std::_Tree_simple_types<int> >,1><>
PUBLIC	??$?0$$V@?$_Compressed_pair@V?$allocator@U?$_Tree_node@V?$vector@HV?$allocator@H@std@@@std@@PEAX@std@@@std@@V?$_Tree_val@U?$_Tree_simple_types@V?$vector@HV?$allocator@H@std@@@std@@@std@@@2@$00@std@@QEAA@U_Zero_then_variadic_args_t@1@@Z ; std::_Compressed_pair<std::allocator<std::_Tree_node<std::vector<int,std::allocator<int> >,void *> >,std::_Tree_val<std::_Tree_simple_types<std::vector<int,std::allocator<int> > > >,1>::_Compressed_pair<std::allocator<std::_Tree_node<std::vector<int,std::allocator<int> >,void *> >,std::_Tree_val<std::_Tree_simple_types<std::vector<int,std::allocator<int> > > >,1><>
PUBLIC	?_Get_first@?$_Compressed_pair@V?$allocator@V?$vector@HV?$allocator@H@std@@@std@@@std@@V?$_Vector_val@U?$_Simple_types@V?$vector@HV?$allocator@H@std@@@std@@@std@@@2@$00@std@@QEBAAEBV?$allocator@V?$vector@HV?$allocator@H@std@@@std@@@2@XZ ; std::_Compressed_pair<std::allocator<std::vector<int,std::allocator<int> > >,std::_Vector_val<std::_Simple_types<std::vector<int,std::allocator<int> > > >,1>::_Get_first
PUBLIC	?max_size@?$_Default_allocator_traits@V?$allocator@V?$vector@HV?$allocator@H@std@@@std@@@std@@@std@@SA_KAEBV?$allocator@V?$vector@HV?$allocator@H@std@@@std@@@2@@Z ; std::_Default_allocator_traits<std::allocator<std::vector<int,std::allocator<int> > > >::max_size
PUBLIC	?capacity@?$vector@V?$vector@HV?$allocator@H@std@@@std@@V?$allocator@V?$vector@HV?$allocator@H@std@@@std@@@2@@std@@QEBA_KXZ ; std::vector<std::vector<int,std::allocator<int> >,std::allocator<std::vector<int,std::allocator<int> > > >::capacity
PUBLIC	?_Buy_raw@?$vector@V?$vector@HV?$allocator@H@std@@@std@@V?$allocator@V?$vector@HV?$allocator@H@std@@@std@@@2@@std@@AEAAX_K@Z ; std::vector<std::vector<int,std::allocator<int> >,std::allocator<std::vector<int,std::allocator<int> > > >::_Buy_raw
PUBLIC	?_Getal@?$vector@V?$vector@HV?$allocator@H@std@@@std@@V?$allocator@V?$vector@HV?$allocator@H@std@@@std@@@2@@std@@AEBAAEBV?$allocator@V?$vector@HV?$allocator@H@std@@@std@@@2@XZ ; std::vector<std::vector<int,std::allocator<int> >,std::allocator<std::vector<int,std::allocator<int> > > >::_Getal
PUBLIC	?_Min@?$_Tree_val@U?$_Tree_simple_types@H@std@@@std@@SAPEAU?$_Tree_node@HPEAX@2@PEAU32@@Z ; std::_Tree_val<std::_Tree_simple_types<int> >::_Min
PUBLIC	??8?$_Tree_unchecked_const_iterator@V?$_Tree_val@U?$_Tree_simple_types@H@std@@@std@@U_Iterator_base0@2@@std@@QEBA_NAEBV01@@Z ; std::_Tree_unchecked_const_iterator<std::_Tree_val<std::_Tree_simple_types<int> >,std::_Iterator_base0>::operator==
PUBLIC	?_Min@?$_Tree_val@U?$_Tree_simple_types@V?$vector@HV?$allocator@H@std@@@std@@@std@@@std@@SAPEAU?$_Tree_node@V?$vector@HV?$allocator@H@std@@@std@@PEAX@2@PEAU32@@Z ; std::_Tree_val<std::_Tree_simple_types<std::vector<int,std::allocator<int> > > >::_Min
PUBLIC	??8?$_Tree_unchecked_const_iterator@V?$_Tree_val@U?$_Tree_simple_types@V?$vector@HV?$allocator@H@std@@@std@@@std@@@std@@U_Iterator_base0@2@@std@@QEBA_NAEBV01@@Z ; std::_Tree_unchecked_const_iterator<std::_Tree_val<std::_Tree_simple_types<std::vector<int,std::allocator<int> > > >,std::_Iterator_base0>::operator==
PUBLIC	??4?$vector@HV?$allocator@H@std@@@std@@QEAAAEAV01@AEBV01@@Z ; std::vector<int,std::allocator<int> >::operator=
PUBLIC	?_Change_array@?$vector@HV?$allocator@H@std@@@std@@AEAAXQEAH_K1@Z ; std::vector<int,std::allocator<int> >::_Change_array
PUBLIC	?allocate@?$allocator@V?$vector@HV?$allocator@H@std@@@std@@@std@@QEAAPEAV?$vector@HV?$allocator@H@std@@@2@_K@Z ; std::allocator<std::vector<int,std::allocator<int> > >::allocate
PUBLIC	?_Clear_and_reserve_geometric@?$vector@V?$vector@HV?$allocator@H@std@@@std@@V?$allocator@V?$vector@HV?$allocator@H@std@@@std@@@2@@std@@AEAAX_K@Z ; std::vector<std::vector<int,std::allocator<int> >,std::allocator<std::vector<int,std::allocator<int> > > >::_Clear_and_reserve_geometric
PUBLIC	?max_size@?$vector@V?$vector@HV?$allocator@H@std@@@std@@V?$allocator@V?$vector@HV?$allocator@H@std@@@std@@@2@@std@@QEBA_KXZ ; std::vector<std::vector<int,std::allocator<int> >,std::allocator<std::vector<int,std::allocator<int> > > >::max_size
PUBLIC	?_Calculate_growth@?$vector@V?$vector@HV?$allocator@H@std@@@std@@V?$allocator@V?$vector@HV?$allocator@H@std@@@std@@@2@@std@@AEBA_K_K@Z ; std::vector<std::vector<int,std::allocator<int> >,std::allocator<std::vector<int,std::allocator<int> > > >::_Calculate_growth
PUBLIC	?_Change_array@?$vector@V?$vector@HV?$allocator@H@std@@@std@@V?$allocator@V?$vector@HV?$allocator@H@std@@@std@@@2@@std@@AEAAXQEAV?$vector@HV?$allocator@H@std@@@2@_K1@Z ; std::vector<std::vector<int,std::allocator<int> >,std::allocator<std::vector<int,std::allocator<int> > > >::_Change_array
PUBLIC	?_Xlength@?$vector@V?$vector@HV?$allocator@H@std@@@std@@V?$allocator@V?$vector@HV?$allocator@H@std@@@std@@@2@@std@@CAXXZ ; std::vector<std::vector<int,std::allocator<int> >,std::allocator<std::vector<int,std::allocator<int> > > >::_Xlength
PUBLIC	?allocate@?$allocator@U?$_Tree_node@HPEAX@std@@@std@@QEAAPEAU?$_Tree_node@HPEAX@2@_K@Z ; std::allocator<std::_Tree_node<int,void *> >::allocate
PUBLIC	?deallocate@?$_Default_allocator_traits@V?$allocator@U?$_Tree_node@HPEAX@std@@@std@@@std@@SAXAEAV?$allocator@U?$_Tree_node@HPEAX@std@@@2@QEAU?$_Tree_node@HPEAX@2@_K@Z ; std::_Default_allocator_traits<std::allocator<std::_Tree_node<int,void *> > >::deallocate
PUBLIC	?_Unwrapped@?$_Vector_iterator@V?$_Vector_val@U?$_Simple_types@H@std@@@std@@@std@@QEBAPEAHXZ ; std::_Vector_iterator<std::_Vector_val<std::_Simple_types<int> > >::_Unwrapped
PUBLIC	??D?$_Tree_unchecked_const_iterator@V?$_Tree_val@U?$_Tree_simple_types@H@std@@@std@@U_Iterator_base0@2@@std@@QEBAAEBHXZ ; std::_Tree_unchecked_const_iterator<std::_Tree_val<std::_Tree_simple_types<int> >,std::_Iterator_base0>::operator*
PUBLIC	??E?$_Tree_unchecked_const_iterator@V?$_Tree_val@U?$_Tree_simple_types@H@std@@@std@@U_Iterator_base0@2@@std@@QEAAAEAV01@XZ ; std::_Tree_unchecked_const_iterator<std::_Tree_val<std::_Tree_simple_types<int> >,std::_Iterator_base0>::operator++
PUBLIC	??9?$_Tree_unchecked_const_iterator@V?$_Tree_val@U?$_Tree_simple_types@H@std@@@std@@U_Iterator_base0@2@@std@@QEBA_NAEBV01@@Z ; std::_Tree_unchecked_const_iterator<std::_Tree_val<std::_Tree_simple_types<int> >,std::_Iterator_base0>::operator!=
PUBLIC	?_Seek_to@?$_Vector_const_iterator@V?$_Vector_val@U?$_Simple_types@V?$vector@HV?$allocator@H@std@@@std@@@std@@@std@@@std@@QEAAXPEBV?$vector@HV?$allocator@H@std@@@2@@Z ; std::_Vector_const_iterator<std::_Vector_val<std::_Simple_types<std::vector<int,std::allocator<int> > > > >::_Seek_to
PUBLIC	?allocate@?$allocator@U?$_Tree_node@V?$vector@HV?$allocator@H@std@@@std@@PEAX@std@@@std@@QEAAPEAU?$_Tree_node@V?$vector@HV?$allocator@H@std@@@std@@PEAX@2@_K@Z ; std::allocator<std::_Tree_node<std::vector<int,std::allocator<int> >,void *> >::allocate
PUBLIC	?deallocate@?$_Default_allocator_traits@V?$allocator@U?$_Tree_node@V?$vector@HV?$allocator@H@std@@@std@@PEAX@std@@@std@@@std@@SAXAEAV?$allocator@U?$_Tree_node@V?$vector@HV?$allocator@H@std@@@std@@PEAX@std@@@2@QEAU?$_Tree_node@V?$vector@HV?$allocator@H@std@@@std@@PEAX@2@_K@Z ; std::_Default_allocator_traits<std::allocator<std::_Tree_node<std::vector<int,std::allocator<int> >,void *> > >::deallocate
PUBLIC	??D?$_Tree_unchecked_const_iterator@V?$_Tree_val@U?$_Tree_simple_types@V?$vector@HV?$allocator@H@std@@@std@@@std@@@std@@U_Iterator_base0@2@@std@@QEBAAEBV?$vector@HV?$allocator@H@std@@@1@XZ ; std::_Tree_unchecked_const_iterator<std::_Tree_val<std::_Tree_simple_types<std::vector<int,std::allocator<int> > > >,std::_Iterator_base0>::operator*
PUBLIC	??E?$_Tree_unchecked_const_iterator@V?$_Tree_val@U?$_Tree_simple_types@V?$vector@HV?$allocator@H@std@@@std@@@std@@@std@@U_Iterator_base0@2@@std@@QEAAAEAV01@XZ ; std::_Tree_unchecked_const_iterator<std::_Tree_val<std::_Tree_simple_types<std::vector<int,std::allocator<int> > > >,std::_Iterator_base0>::operator++
PUBLIC	??9?$_Tree_unchecked_const_iterator@V?$_Tree_val@U?$_Tree_simple_types@V?$vector@HV?$allocator@H@std@@@std@@@std@@@std@@U_Iterator_base0@2@@std@@QEBA_NAEBV01@@Z ; std::_Tree_unchecked_const_iterator<std::_Tree_val<std::_Tree_simple_types<std::vector<int,std::allocator<int> > > >,std::_Iterator_base0>::operator!=
PUBLIC	??0?$_Uninitialized_backout_al@V?$allocator@H@std@@@std@@QEAA@PEAHAEAV?$allocator@H@1@@Z ; std::_Uninitialized_backout_al<std::allocator<int> >::_Uninitialized_backout_al<std::allocator<int> >
PUBLIC	??1?$_Uninitialized_backout_al@V?$allocator@H@std@@@std@@QEAA@XZ ; std::_Uninitialized_backout_al<std::allocator<int> >::~_Uninitialized_backout_al<std::allocator<int> >
PUBLIC	?_Release@?$_Uninitialized_backout_al@V?$allocator@H@std@@@std@@QEAAPEAHXZ ; std::_Uninitialized_backout_al<std::allocator<int> >::_Release
PUBLIC	?__autoclassinit2@?$_Uninitialized_backout_al@V?$allocator@H@std@@@std@@QEAAX_K@Z ; std::_Uninitialized_backout_al<std::allocator<int> >::__autoclassinit2
PUBLIC	??$_Buyheadnode@V?$allocator@U?$_Tree_node@HPEAX@std@@@std@@@?$_Tree_node@HPEAX@std@@SAPEAU01@AEAV?$allocator@U?$_Tree_node@HPEAX@std@@@1@@Z ; std::_Tree_node<int,void *>::_Buyheadnode<std::allocator<std::_Tree_node<int,void *> > >
PUBLIC	??$_Buyheadnode@V?$allocator@U?$_Tree_node@V?$vector@HV?$allocator@H@std@@@std@@PEAX@std@@@std@@@?$_Tree_node@V?$vector@HV?$allocator@H@std@@@std@@PEAX@std@@SAPEAU01@AEAV?$allocator@U?$_Tree_node@V?$vector@HV?$allocator@H@std@@@std@@PEAX@std@@@1@@Z ; std::_Tree_node<std::vector<int,std::allocator<int> >,void *>::_Buyheadnode<std::allocator<std::_Tree_node<std::vector<int,std::allocator<int> >,void *> > >
PUBLIC	??$_Allocate@$0BA@U_Default_allocate_traits@std@@$0A@@std@@YAPEAX_K@Z ; std::_Allocate<16,std::_Default_allocate_traits,0>
PUBLIC	??$_Get_size_of_n@$03@std@@YA_K_K@Z		; std::_Get_size_of_n<4>
PUBLIC	??$?0AEBU?$less@H@std@@U_Zero_then_variadic_args_t@1@@?$_Compressed_pair@U?$less@H@std@@V?$_Compressed_pair@V?$allocator@U?$_Tree_node@HPEAX@std@@@std@@V?$_Tree_val@U?$_Tree_simple_types@H@std@@@2@$00@2@$00@std@@QEAA@U_One_then_variadic_args_t@1@AEBU?$less@H@1@$$QEAU_Zero_then_variadic_args_t@1@@Z ; std::_Compressed_pair<std::less<int>,std::_Compressed_pair<std::allocator<std::_Tree_node<int,void *> >,std::_Tree_val<std::_Tree_simple_types<int> >,1>,1>::_Compressed_pair<std::less<int>,std::_Compressed_pair<std::allocator<std::_Tree_node<int,void *> >,std::_Tree_val<std::_Tree_simple_types<int> >,1>,1><std::less<int> const &,std::_Zero_then_variadic_args_t>
PUBLIC	??$?0AEBU?$less@V?$vector@HV?$allocator@H@std@@@std@@@std@@U_Zero_then_variadic_args_t@1@@?$_Compressed_pair@U?$less@V?$vector@HV?$allocator@H@std@@@std@@@std@@V?$_Compressed_pair@V?$allocator@U?$_Tree_node@V?$vector@HV?$allocator@H@std@@@std@@PEAX@std@@@std@@V?$_Tree_val@U?$_Tree_simple_types@V?$vector@HV?$allocator@H@std@@@std@@@std@@@2@$00@2@$00@std@@QEAA@U_One_then_variadic_args_t@1@AEBU?$less@V?$vector@HV?$allocator@H@std@@@std@@@1@$$QEAU_Zero_then_variadic_args_t@1@@Z ; std::_Compressed_pair<std::less<std::vector<int,std::allocator<int> > >,std::_Compressed_pair<std::allocator<std::_Tree_node<std::vector<int,std::allocator<int> >,void *> >,std::_Tree_val<std::_Tree_simple_types<std::vector<int,std::allocator<int> > > >,1>,1>::_Compressed_pair<std::less<std::vector<int,std::allocator<int> > >,std::_Compressed_pair<std::allocator<std::_Tree_node<std::vector<int,std::allocator<int> >,void *> >,std::_Tree_val<std::_Tree_simple_types<std::vector<int,std::allocator<int> > > >,1>,1><std::less<std::vector<int,std::allocator<int> > > const &,std::_Zero_then_variadic_args_t>
PUBLIC	??$_Uninitialized_fill_n@V?$allocator@H@std@@@std@@YAPEAHPEAH_KAEBHAEAV?$allocator@H@0@@Z ; std::_Uninitialized_fill_n<std::allocator<int> >
PUBLIC	??$forward@AEBV?$allocator@H@std@@@std@@YAAEBV?$allocator@H@0@AEBV10@@Z ; std::forward<std::allocator<int> const &>
PUBLIC	??$_To_address@PEAH@std@@YA?A_PAEBQEAH@Z	; std::_To_address<int *>
PUBLIC	??$_Uninitialized_copy@PEAHPEAHV?$allocator@H@std@@@std@@YAPEAHPEAH00AEAV?$allocator@H@0@@Z ; std::_Uninitialized_copy<int *,int *,std::allocator<int> >
PUBLIC	??$_Get_unwrapped@PEAH@std@@YA?A_T$$QEAPEAH@Z	; std::_Get_unwrapped<int *>
PUBLIC	??$forward@AEBQEAH@std@@YAAEBQEAHAEBQEAH@Z	; std::forward<int * const &>
PUBLIC	??$forward@V?$allocator@H@std@@@std@@YA$$QEAV?$allocator@H@0@AEAV10@@Z ; std::forward<std::allocator<int> >
PUBLIC	??$move@AEAV?$allocator@H@std@@@std@@YA$$QEAV?$allocator@H@0@AEAV10@@Z ; std::move<std::allocator<int> &>
PUBLIC	??$_Emplace_reallocate@AEBH@?$vector@HV?$allocator@H@std@@@std@@AEAAPEAHQEAHAEBH@Z ; std::vector<int,std::allocator<int> >::_Emplace_reallocate<int const &>
PUBLIC	??$_Emplace_back_with_unused_capacity@AEBH@?$vector@HV?$allocator@H@std@@@std@@AEAAAEAHAEBH@Z ; std::vector<int,std::allocator<int> >::_Emplace_back_with_unused_capacity<int const &>
PUBLIC	??$forward@AEBH@std@@YAAEBHAEBH@Z		; std::forward<int const &>
PUBLIC	??$_Copy_n_unchecked4@PEBH_KPEAH@std@@YAPEAHPEBH_KPEAH@Z ; std::_Copy_n_unchecked4<int const *,unsigned __int64,int *>
PUBLIC	??$_Copy_memmove_n@PEBHPEAH@std@@YAPEAHPEBH_KPEAH@Z ; std::_Copy_memmove_n<int const *,int *>
PUBLIC	??$_Uninitialized_copy_n@PEBHV?$allocator@H@std@@@std@@YAPEAHPEBH_KPEAHAEAV?$allocator@H@0@@Z ; std::_Uninitialized_copy_n<int const *,std::allocator<int> >
PUBLIC	??$_Get_unwrapped@PEBH@std@@YA?A_T$$QEAPEBH@Z	; std::_Get_unwrapped<int const *>
PUBLIC	??$move@AEAPEBH@std@@YA$$QEAPEBHAEAPEBH@Z	; std::move<int const * &>
PUBLIC	??$_Uninitialized_value_construct_n@V?$allocator@H@std@@@std@@YAPEAHPEAH_KAEAV?$allocator@H@0@@Z ; std::_Uninitialized_value_construct_n<std::allocator<int> >
PUBLIC	??$_Resize_reallocate@U_Value_init_tag@std@@@?$vector@HV?$allocator@H@std@@@std@@AEAAX_KAEBU_Value_init_tag@1@@Z ; std::vector<int,std::allocator<int> >::_Resize_reallocate<std::_Value_init_tag>
PUBLIC	??$forward@PEAV?$vector@HV?$allocator@H@std@@@std@@@std@@YA$$QEAPEAV?$vector@HV?$allocator@H@std@@@0@AEAPEAV10@@Z ; std::forward<std::vector<int,std::allocator<int> > *>
PUBLIC	??$forward@V?$allocator@V?$vector@HV?$allocator@H@std@@@std@@@std@@@std@@YA$$QEAV?$allocator@V?$vector@HV?$allocator@H@std@@@std@@@0@AEAV10@@Z ; std::forward<std::allocator<std::vector<int,std::allocator<int> > > >
PUBLIC	??$_Emplace_reallocate@V?$vector@HV?$allocator@H@std@@@std@@@?$vector@V?$vector@HV?$allocator@H@std@@@std@@V?$allocator@V?$vector@HV?$allocator@H@std@@@std@@@2@@std@@AEAAPEAV?$vector@HV?$allocator@H@std@@@1@QEAV21@$$QEAV21@@Z ; std::vector<std::vector<int,std::allocator<int> >,std::allocator<std::vector<int,std::allocator<int> > > >::_Emplace_reallocate<std::vector<int,std::allocator<int> > >
PUBLIC	??$_Emplace_back_with_unused_capacity@V?$vector@HV?$allocator@H@std@@@std@@@?$vector@V?$vector@HV?$allocator@H@std@@@std@@V?$allocator@V?$vector@HV?$allocator@H@std@@@std@@@2@@std@@AEAAAEAV?$vector@HV?$allocator@H@std@@@1@$$QEAV21@@Z ; std::vector<std::vector<int,std::allocator<int> >,std::allocator<std::vector<int,std::allocator<int> > > >::_Emplace_back_with_unused_capacity<std::vector<int,std::allocator<int> > >
PUBLIC	??$forward@V?$vector@HV?$allocator@H@std@@@std@@@std@@YA$$QEAV?$vector@HV?$allocator@H@std@@@0@AEAV10@@Z ; std::forward<std::vector<int,std::allocator<int> > >
PUBLIC	??$_Freenode0@V?$allocator@U?$_Tree_node@HPEAX@std@@@std@@@?$_Tree_node@HPEAX@std@@SAXAEAV?$allocator@U?$_Tree_node@HPEAX@std@@@1@PEAU01@@Z ; std::_Tree_node<int,void *>::_Freenode0<std::allocator<std::_Tree_node<int,void *> > >
PUBLIC	??$_Erase_tree@V?$allocator@U?$_Tree_node@HPEAX@std@@@std@@@?$_Tree_val@U?$_Tree_simple_types@H@std@@@std@@QEAAXAEAV?$allocator@U?$_Tree_node@HPEAX@std@@@1@PEAU?$_Tree_node@HPEAX@1@@Z ; std::_Tree_val<std::_Tree_simple_types<int> >::_Erase_tree<std::allocator<std::_Tree_node<int,void *> > >
PUBLIC	??$_Freenode0@V?$allocator@U?$_Tree_node@V?$vector@HV?$allocator@H@std@@@std@@PEAX@std@@@std@@@?$_Tree_node@V?$vector@HV?$allocator@H@std@@@std@@PEAX@std@@SAXAEAV?$allocator@U?$_Tree_node@V?$vector@HV?$allocator@H@std@@@std@@PEAX@std@@@1@PEAU01@@Z ; std::_Tree_node<std::vector<int,std::allocator<int> >,void *>::_Freenode0<std::allocator<std::_Tree_node<std::vector<int,std::allocator<int> >,void *> > >
PUBLIC	??$_Erase_tree@V?$allocator@U?$_Tree_node@V?$vector@HV?$allocator@H@std@@@std@@PEAX@std@@@std@@@?$_Tree_val@U?$_Tree_simple_types@V?$vector@HV?$allocator@H@std@@@std@@@std@@@std@@QEAAXAEAV?$allocator@U?$_Tree_node@V?$vector@HV?$allocator@H@std@@@std@@PEAX@std@@@1@PEAU?$_Tree_node@V?$vector@HV?$allocator@H@std@@@std@@PEAX@1@@Z ; std::_Tree_val<std::_Tree_simple_types<std::vector<int,std::allocator<int> > > >::_Erase_tree<std::allocator<std::_Tree_node<std::vector<int,std::allocator<int> >,void *> > >
PUBLIC	??$_Seek_wrapped@V?$_Vector_iterator@V?$_Vector_val@U?$_Simple_types@V?$vector@HV?$allocator@H@std@@@std@@@std@@@std@@@std@@PEAV?$vector@HV?$allocator@H@std@@@2@@std@@YAXAEAV?$_Vector_iterator@V?$_Vector_val@U?$_Simple_types@V?$vector@HV?$allocator@H@std@@@std@@@std@@@std@@@0@$$QEAPEAV?$vector@HV?$allocator@H@std@@@0@@Z ; std::_Seek_wrapped<std::_Vector_iterator<std::_Vector_val<std::_Simple_types<std::vector<int,std::allocator<int> > > > >,std::vector<int,std::allocator<int> > *>
PUBLIC	??$_Find_unchecked@PEAV?$vector@HV?$allocator@H@std@@@std@@V12@@std@@YAPEAV?$vector@HV?$allocator@H@std@@@0@PEAV10@QEAV10@AEBV10@@Z ; std::_Find_unchecked<std::vector<int,std::allocator<int> > *,std::vector<int,std::allocator<int> > >
PUBLIC	??$_Adl_verify_range@V?$_Vector_iterator@V?$_Vector_val@U?$_Simple_types@V?$vector@HV?$allocator@H@std@@@std@@@std@@@std@@@std@@V12@@std@@YAXAEBV?$_Vector_iterator@V?$_Vector_val@U?$_Simple_types@V?$vector@HV?$allocator@H@std@@@std@@@std@@@std@@@0@0@Z ; std::_Adl_verify_range<std::_Vector_iterator<std::_Vector_val<std::_Simple_types<std::vector<int,std::allocator<int> > > > >,std::_Vector_iterator<std::_Vector_val<std::_Simple_types<std::vector<int,std::allocator<int> > > > > >
PUBLIC	??$_Assign_counted_range@V?$_Tree_unchecked_const_iterator@V?$_Tree_val@U?$_Tree_simple_types@V?$vector@HV?$allocator@H@std@@@std@@@std@@@std@@U_Iterator_base0@2@@std@@@?$vector@V?$vector@HV?$allocator@H@std@@@std@@V?$allocator@V?$vector@HV?$allocator@H@std@@@std@@@2@@std@@AEAAXV?$_Tree_unchecked_const_iterator@V?$_Tree_val@U?$_Tree_simple_types@V?$vector@HV?$allocator@H@std@@@std@@@std@@@std@@U_Iterator_base0@2@@1@_K@Z ; std::vector<std::vector<int,std::allocator<int> >,std::allocator<std::vector<int,std::allocator<int> > > >::_Assign_counted_range<std::_Tree_unchecked_const_iterator<std::_Tree_val<std::_Tree_simple_types<std::vector<int,std::allocator<int> > > >,std::_Iterator_base0> >
PUBLIC	??$_Get_unwrapped@AEAV?$_Tree_unchecked_const_iterator@V?$_Tree_val@U?$_Tree_simple_types@V?$vector@HV?$allocator@H@std@@@std@@@std@@@std@@U_Iterator_base0@2@@std@@@std@@YA?A_TAEAV?$_Tree_unchecked_const_iterator@V?$_Tree_val@U?$_Tree_simple_types@V?$vector@HV?$allocator@H@std@@@std@@@std@@@std@@U_Iterator_base0@2@@0@@Z ; std::_Get_unwrapped<std::_Tree_unchecked_const_iterator<std::_Tree_val<std::_Tree_simple_types<std::vector<int,std::allocator<int> > > >,std::_Iterator_base0> &>
PUBLIC	??$distance@V?$_Tree_unchecked_const_iterator@V?$_Tree_val@U?$_Tree_simple_types@V?$vector@HV?$allocator@H@std@@@std@@@std@@@std@@U_Iterator_base0@2@@std@@@std@@YA_JV?$_Tree_unchecked_const_iterator@V?$_Tree_val@U?$_Tree_simple_types@V?$vector@HV?$allocator@H@std@@@std@@@std@@@std@@U_Iterator_base0@2@@0@0@Z ; std::distance<std::_Tree_unchecked_const_iterator<std::_Tree_val<std::_Tree_simple_types<std::vector<int,std::allocator<int> > > >,std::_Iterator_base0> >
PUBLIC	??$_Adl_verify_range@V?$_Tree_const_iterator@V?$_Tree_val@U?$_Tree_simple_types@V?$vector@HV?$allocator@H@std@@@std@@@std@@@std@@@std@@V12@@std@@YAXAEBV?$_Tree_const_iterator@V?$_Tree_val@U?$_Tree_simple_types@V?$vector@HV?$allocator@H@std@@@std@@@std@@@std@@@0@0@Z ; std::_Adl_verify_range<std::_Tree_const_iterator<std::_Tree_val<std::_Tree_simple_types<std::vector<int,std::allocator<int> > > > >,std::_Tree_const_iterator<std::_Tree_val<std::_Tree_simple_types<std::vector<int,std::allocator<int> > > > > >
PUBLIC	??$insert@V?$_Vector_iterator@V?$_Vector_val@U?$_Simple_types@V?$vector@HV?$allocator@H@std@@@std@@@std@@@std@@@std@@@?$_Tree@V?$_Tset_traits@V?$vector@HV?$allocator@H@std@@@std@@U?$less@V?$vector@HV?$allocator@H@std@@@std@@@2@V?$allocator@V?$vector@HV?$allocator@H@std@@@std@@@2@$0A@@std@@@std@@QEAAXV?$_Vector_iterator@V?$_Vector_val@U?$_Simple_types@V?$vector@HV?$allocator@H@std@@@std@@@std@@@std@@@1@0@Z ; std::_Tree<std::_Tset_traits<std::vector<int,std::allocator<int> >,std::less<std::vector<int,std::allocator<int> > >,std::allocator<std::vector<int,std::allocator<int> > >,0> >::insert<std::_Vector_iterator<std::_Vector_val<std::_Simple_types<std::vector<int,std::allocator<int> > > > > >
PUBLIC	??$_Assign_counted_range@V?$_Tree_unchecked_const_iterator@V?$_Tree_val@U?$_Tree_simple_types@H@std@@@std@@U_Iterator_base0@2@@std@@@?$vector@HV?$allocator@H@std@@@std@@AEAAXV?$_Tree_unchecked_const_iterator@V?$_Tree_val@U?$_Tree_simple_types@H@std@@@std@@U_Iterator_base0@2@@1@_K@Z ; std::vector<int,std::allocator<int> >::_Assign_counted_range<std::_Tree_unchecked_const_iterator<std::_Tree_val<std::_Tree_simple_types<int> >,std::_Iterator_base0> >
PUBLIC	??$_Get_unwrapped@AEAV?$_Tree_unchecked_const_iterator@V?$_Tree_val@U?$_Tree_simple_types@H@std@@@std@@U_Iterator_base0@2@@std@@@std@@YA?A_TAEAV?$_Tree_unchecked_const_iterator@V?$_Tree_val@U?$_Tree_simple_types@H@std@@@std@@U_Iterator_base0@2@@0@@Z ; std::_Get_unwrapped<std::_Tree_unchecked_const_iterator<std::_Tree_val<std::_Tree_simple_types<int> >,std::_Iterator_base0> &>
PUBLIC	??$distance@V?$_Tree_unchecked_const_iterator@V?$_Tree_val@U?$_Tree_simple_types@H@std@@@std@@U_Iterator_base0@2@@std@@@std@@YA_JV?$_Tree_unchecked_const_iterator@V?$_Tree_val@U?$_Tree_simple_types@H@std@@@std@@U_Iterator_base0@2@@0@0@Z ; std::distance<std::_Tree_unchecked_const_iterator<std::_Tree_val<std::_Tree_simple_types<int> >,std::_Iterator_base0> >
PUBLIC	??$_Adl_verify_range@V?$_Tree_const_iterator@V?$_Tree_val@U?$_Tree_simple_types@H@std@@@std@@@std@@V12@@std@@YAXAEBV?$_Tree_const_iterator@V?$_Tree_val@U?$_Tree_simple_types@H@std@@@std@@@0@0@Z ; std::_Adl_verify_range<std::_Tree_const_iterator<std::_Tree_val<std::_Tree_simple_types<int> > >,std::_Tree_const_iterator<std::_Tree_val<std::_Tree_simple_types<int> > > >
PUBLIC	??$_Get_unwrapped@AEAV?$_Vector_iterator@V?$_Vector_val@U?$_Simple_types@H@std@@@std@@@std@@@std@@YA?A_TAEAV?$_Vector_iterator@V?$_Vector_val@U?$_Simple_types@H@std@@@std@@@0@@Z ; std::_Get_unwrapped<std::_Vector_iterator<std::_Vector_val<std::_Simple_types<int> > > &>
PUBLIC	??$insert@V?$_Vector_iterator@V?$_Vector_val@U?$_Simple_types@H@std@@@std@@@std@@@?$_Tree@V?$_Tset_traits@HU?$less@H@std@@V?$allocator@H@2@$0A@@std@@@std@@QEAAXV?$_Vector_iterator@V?$_Vector_val@U?$_Simple_types@H@std@@@std@@@1@0@Z ; std::_Tree<std::_Tset_traits<int,std::less<int>,std::allocator<int>,0> >::insert<std::_Vector_iterator<std::_Vector_val<std::_Simple_types<int> > > >
PUBLIC	??$move@AEAH@std@@YA$$QEAHAEAH@Z		; std::move<int &>
PUBLIC	?allocate@?$allocator@H@std@@QEAAPEAH_K@Z	; std::allocator<int>::allocate
PUBLIC	?max_size@?$_Default_allocator_traits@V?$allocator@H@std@@@std@@SA_KAEBV?$allocator@H@2@@Z ; std::_Default_allocator_traits<std::allocator<int> >::max_size
PUBLIC	?capacity@?$vector@HV?$allocator@H@std@@@std@@QEBA_KXZ ; std::vector<int,std::allocator<int> >::capacity
PUBLIC	?max_size@?$vector@HV?$allocator@H@std@@@std@@QEBA_KXZ ; std::vector<int,std::allocator<int> >::max_size
PUBLIC	?_Calculate_growth@?$vector@HV?$allocator@H@std@@@std@@AEBA_K_K@Z ; std::vector<int,std::allocator<int> >::_Calculate_growth
PUBLIC	?_Buy_raw@?$vector@HV?$allocator@H@std@@@std@@AEAAX_K@Z ; std::vector<int,std::allocator<int> >::_Buy_raw
PUBLIC	?_Xlength@?$vector@HV?$allocator@H@std@@@std@@CAXXZ ; std::vector<int,std::allocator<int> >::_Xlength
PUBLIC	?_Alloc_sentinel_and_proxy@?$_Tree@V?$_Tset_traits@HU?$less@H@std@@V?$allocator@H@2@$0A@@std@@@std@@IEAAXXZ ; std::_Tree<std::_Tset_traits<int,std::less<int>,std::allocator<int>,0> >::_Alloc_sentinel_and_proxy
PUBLIC	?_Alloc_sentinel_and_proxy@?$_Tree@V?$_Tset_traits@V?$vector@HV?$allocator@H@std@@@std@@U?$less@V?$vector@HV?$allocator@H@std@@@std@@@2@V?$allocator@V?$vector@HV?$allocator@H@std@@@std@@@2@$0A@@std@@@std@@IEAAXXZ ; std::_Tree<std::_Tset_traits<std::vector<int,std::allocator<int> >,std::less<std::vector<int,std::allocator<int> > >,std::allocator<std::vector<int,std::allocator<int> > >,0> >::_Alloc_sentinel_and_proxy
PUBLIC	?_Clear_and_reserve_geometric@?$vector@HV?$allocator@H@std@@@std@@AEAAX_K@Z ; std::vector<int,std::allocator<int> >::_Clear_and_reserve_geometric
PUBLIC	?_Buy_nonzero@?$vector@HV?$allocator@H@std@@@std@@AEAAX_K@Z ; std::vector<int,std::allocator<int> >::_Buy_nonzero
PUBLIC	??0?$_Vector_val@U?$_Simple_types@H@std@@@std@@QEAA@XZ ; std::_Vector_val<std::_Simple_types<int> >::_Vector_val<std::_Simple_types<int> >
PUBLIC	??0?$allocator@V?$vector@HV?$allocator@H@std@@@std@@@std@@QEAA@XZ ; std::allocator<std::vector<int,std::allocator<int> > >::allocator<std::vector<int,std::allocator<int> > >
PUBLIC	??0?$_Vector_val@U?$_Simple_types@V?$vector@HV?$allocator@H@std@@@std@@@std@@@std@@QEAA@XZ ; std::_Vector_val<std::_Simple_types<std::vector<int,std::allocator<int> > > >::_Vector_val<std::_Simple_types<std::vector<int,std::allocator<int> > > >
PUBLIC	??0?$_Vector_val@U?$_Simple_types@V?$vector@HV?$allocator@H@std@@@std@@@std@@@std@@QEAA@PEAV?$vector@HV?$allocator@H@std@@@1@00@Z ; std::_Vector_val<std::_Simple_types<std::vector<int,std::allocator<int> > > >::_Vector_val<std::_Simple_types<std::vector<int,std::allocator<int> > > >
PUBLIC	??0?$_Tree@V?$_Tset_traits@HU?$less@H@std@@V?$allocator@H@2@$0A@@std@@@std@@QEAA@AEBU?$less@H@1@@Z ; std::_Tree<std::_Tset_traits<int,std::less<int>,std::allocator<int>,0> >::_Tree<std::_Tset_traits<int,std::less<int>,std::allocator<int>,0> >
PUBLIC	?_Unwrapped@?$_Tree_const_iterator@V?$_Tree_val@U?$_Tree_simple_types@H@std@@@std@@@std@@QEBA?AV?$_Tree_unchecked_const_iterator@V?$_Tree_val@U?$_Tree_simple_types@H@std@@@std@@U_Iterator_base0@2@@2@XZ ; std::_Tree_const_iterator<std::_Tree_val<std::_Tree_simple_types<int> > >::_Unwrapped
PUBLIC	?_Unwrapped@?$_Vector_iterator@V?$_Vector_val@U?$_Simple_types@V?$vector@HV?$allocator@H@std@@@std@@@std@@@std@@@std@@QEBAPEAV?$vector@HV?$allocator@H@std@@@2@XZ ; std::_Vector_iterator<std::_Vector_val<std::_Simple_types<std::vector<int,std::allocator<int> > > > >::_Unwrapped
PUBLIC	??0?$_Tree@V?$_Tset_traits@V?$vector@HV?$allocator@H@std@@@std@@U?$less@V?$vector@HV?$allocator@H@std@@@std@@@2@V?$allocator@V?$vector@HV?$allocator@H@std@@@std@@@2@$0A@@std@@@std@@QEAA@AEBU?$less@V?$vector@HV?$allocator@H@std@@@std@@@1@@Z ; std::_Tree<std::_Tset_traits<std::vector<int,std::allocator<int> >,std::less<std::vector<int,std::allocator<int> > >,std::allocator<std::vector<int,std::allocator<int> > >,0> >::_Tree<std::_Tset_traits<std::vector<int,std::allocator<int> >,std::less<std::vector<int,std::allocator<int> > >,std::allocator<std::vector<int,std::allocator<int> > >,0> >
PUBLIC	?_Unwrapped@?$_Tree_const_iterator@V?$_Tree_val@U?$_Tree_simple_types@V?$vector@HV?$allocator@H@std@@@std@@@std@@@std@@@std@@QEBA?AV?$_Tree_unchecked_const_iterator@V?$_Tree_val@U?$_Tree_simple_types@V?$vector@HV?$allocator@H@std@@@std@@@std@@@std@@U_Iterator_base0@2@@2@XZ ; std::_Tree_const_iterator<std::_Tree_val<std::_Tree_simple_types<std::vector<int,std::allocator<int> > > > >::_Unwrapped
PUBLIC	??1?$_Tidy_guard@V?$vector@HV?$allocator@H@std@@@std@@@std@@QEAA@XZ ; std::_Tidy_guard<std::vector<int,std::allocator<int> > >::~_Tidy_guard<std::vector<int,std::allocator<int> > >
PUBLIC	??_G?$vector@HV?$allocator@H@std@@@std@@QEAAPEAXI@Z ; std::vector<int,std::allocator<int> >::`scalar deleting destructor'
PUBLIC	?__autoclassinit2@?$_Tree_unchecked_const_iterator@V?$_Tree_val@U?$_Tree_simple_types@V?$vector@HV?$allocator@H@std@@@std@@@std@@@std@@U_Iterator_base0@2@@std@@QEAAX_K@Z ; std::_Tree_unchecked_const_iterator<std::_Tree_val<std::_Tree_simple_types<std::vector<int,std::allocator<int> > > >,std::_Iterator_base0>::__autoclassinit2
PUBLIC	?__autoclassinit2@?$_Tree_unchecked_const_iterator@V?$_Tree_val@U?$_Tree_simple_types@H@std@@@std@@U_Iterator_base0@2@@std@@QEAAX_K@Z ; std::_Tree_unchecked_const_iterator<std::_Tree_val<std::_Tree_simple_types<int> >,std::_Iterator_base0>::__autoclassinit2
PUBLIC	??$_Deallocate@$0BA@$0A@@std@@YAXPEAX_K@Z	; std::_Deallocate<16,0>
PUBLIC	??$_Destroy_range@V?$allocator@H@std@@@std@@YAXPEAHQEAHAEAV?$allocator@H@0@@Z ; std::_Destroy_range<std::allocator<int> >
PUBLIC	??$_Destroy_range@V?$allocator@V?$vector@HV?$allocator@H@std@@@std@@@std@@@std@@YAXPEAV?$vector@HV?$allocator@H@std@@@0@QEAV10@AEAV?$allocator@V?$vector@HV?$allocator@H@std@@@std@@@0@@Z ; std::_Destroy_range<std::allocator<std::vector<int,std::allocator<int> > > >
PUBLIC	??$addressof@V?$_Tree_val@U?$_Tree_simple_types@H@std@@@std@@@std@@YAPEAV?$_Tree_val@U?$_Tree_simple_types@H@std@@@0@AEAV10@@Z ; std::addressof<std::_Tree_val<std::_Tree_simple_types<int> > >
PUBLIC	??$addressof@V?$_Tree_val@U?$_Tree_simple_types@V?$vector@HV?$allocator@H@std@@@std@@@std@@@std@@@std@@YAPEAV?$_Tree_val@U?$_Tree_simple_types@V?$vector@HV?$allocator@H@std@@@std@@@std@@@0@AEAV10@@Z ; std::addressof<std::_Tree_val<std::_Tree_simple_types<std::vector<int,std::allocator<int> > > > >
PUBLIC	??$min@_K@std@@YAAEB_KAEB_K0@Z			; std::min<unsigned __int64>
PUBLIC	??$?0$$V@?$_Compressed_pair@V?$allocator@H@std@@V?$_Vector_val@U?$_Simple_types@H@std@@@2@$00@std@@QEAA@U_Zero_then_variadic_args_t@1@@Z ; std::_Compressed_pair<std::allocator<int>,std::_Vector_val<std::_Simple_types<int> >,1>::_Compressed_pair<std::allocator<int>,std::_Vector_val<std::_Simple_types<int> >,1><>
PUBLIC	??$_Construct_n@AEBH@?$vector@HV?$allocator@H@std@@@std@@AEAAX_KAEBH@Z ; std::vector<int,std::allocator<int> >::_Construct_n<int const &>
PUBLIC	??$?0AEBV?$allocator@H@std@@$$V@?$_Compressed_pair@V?$allocator@H@std@@V?$_Vector_val@U?$_Simple_types@H@std@@@2@$00@std@@QEAA@U_One_then_variadic_args_t@1@AEBV?$allocator@H@1@@Z ; std::_Compressed_pair<std::allocator<int>,std::_Vector_val<std::_Simple_types<int> >,1>::_Compressed_pair<std::allocator<int>,std::_Vector_val<std::_Simple_types<int> >,1><std::allocator<int> const &>
PUBLIC	??$_Construct_n@AEBQEAHAEBQEAH@?$vector@HV?$allocator@H@std@@@std@@AEAAX_KAEBQEAH1@Z ; std::vector<int,std::allocator<int> >::_Construct_n<int * const &,int * const &>
PUBLIC	??$?0V?$allocator@H@std@@$$V@?$_Compressed_pair@V?$allocator@H@std@@V?$_Vector_val@U?$_Simple_types@H@std@@@2@$00@std@@QEAA@U_One_then_variadic_args_t@1@$$QEAV?$allocator@H@1@@Z ; std::_Compressed_pair<std::allocator<int>,std::_Vector_val<std::_Simple_types<int> >,1>::_Compressed_pair<std::allocator<int>,std::_Vector_val<std::_Simple_types<int> >,1><std::allocator<int> >
PUBLIC	??$_Pocma@V?$allocator@H@std@@@std@@YAXAEAV?$allocator@H@0@0@Z ; std::_Pocma<std::allocator<int> >
PUBLIC	??$addressof@V?$vector@HV?$allocator@H@std@@@std@@@std@@YAPEAV?$vector@HV?$allocator@H@std@@@0@AEAV10@@Z ; std::addressof<std::vector<int,std::allocator<int> > >
PUBLIC	??$_Emplace_one_at_back@AEBH@?$vector@HV?$allocator@H@std@@@std@@AEAAAEAHAEBH@Z ; std::vector<int,std::allocator<int> >::_Emplace_one_at_back<int const &>
PUBLIC	??$_Assign_counted_range@PEBH@?$vector@HV?$allocator@H@std@@@std@@AEAAXPEBH_K@Z ; std::vector<int,std::allocator<int> >::_Assign_counted_range<int const *>
PUBLIC	??$_Convert_size@_K_K@std@@YA_K_K@Z		; std::_Convert_size<unsigned __int64,unsigned __int64>
PUBLIC	??$_Resize@U_Value_init_tag@std@@@?$vector@HV?$allocator@H@std@@@std@@AEAAX_KAEBU_Value_init_tag@1@@Z ; std::vector<int,std::allocator<int> >::_Resize<std::_Value_init_tag>
PUBLIC	??$destroy@H@?$_Default_allocator_traits@V?$allocator@H@std@@@std@@SAXAEAV?$allocator@H@1@QEAH@Z ; std::_Default_allocator_traits<std::allocator<int> >::destroy<int>
PUBLIC	??$_Unfancy@H@std@@YAPEAHPEAH@Z			; std::_Unfancy<int>
PUBLIC	??$addressof@V?$_Vector_val@U?$_Simple_types@H@std@@@std@@@std@@YAPEAV?$_Vector_val@U?$_Simple_types@H@std@@@0@AEAV10@@Z ; std::addressof<std::_Vector_val<std::_Simple_types<int> > >
PUBLIC	??$?0$$V@?$_Compressed_pair@V?$allocator@V?$vector@HV?$allocator@H@std@@@std@@@std@@V?$_Vector_val@U?$_Simple_types@V?$vector@HV?$allocator@H@std@@@std@@@std@@@2@$00@std@@QEAA@U_Zero_then_variadic_args_t@1@@Z ; std::_Compressed_pair<std::allocator<std::vector<int,std::allocator<int> > >,std::_Vector_val<std::_Simple_types<std::vector<int,std::allocator<int> > > >,1>::_Compressed_pair<std::allocator<std::vector<int,std::allocator<int> > >,std::_Vector_val<std::_Simple_types<std::vector<int,std::allocator<int> > > >,1><>
PUBLIC	??$?0V?$allocator@V?$vector@HV?$allocator@H@std@@@std@@@std@@PEAV?$vector@HV?$allocator@H@std@@@1@PEAV21@PEAV21@@?$_Compressed_pair@V?$allocator@V?$vector@HV?$allocator@H@std@@@std@@@std@@V?$_Vector_val@U?$_Simple_types@V?$vector@HV?$allocator@H@std@@@std@@@std@@@2@$00@std@@QEAA@U_One_then_variadic_args_t@1@$$QEAV?$allocator@V?$vector@HV?$allocator@H@std@@@std@@@1@$$QEAPEAV?$vector@HV?$allocator@H@std@@@1@22@Z ; std::_Compressed_pair<std::allocator<std::vector<int,std::allocator<int> > >,std::_Vector_val<std::_Simple_types<std::vector<int,std::allocator<int> > > >,1>::_Compressed_pair<std::allocator<std::vector<int,std::allocator<int> > >,std::_Vector_val<std::_Simple_types<std::vector<int,std::allocator<int> > > >,1><std::allocator<std::vector<int,std::allocator<int> > >,std::vector<int,std::allocator<int> > *,std::vector<int,std::allocator<int> > *,std::vector<int,std::allocator<int> > *>
PUBLIC	??$exchange@PEAV?$vector@HV?$allocator@H@std@@@std@@$$T@std@@YAPEAV?$vector@HV?$allocator@H@std@@@0@AEAPEAV10@$$QEA$$T@Z ; std::exchange<std::vector<int,std::allocator<int> > *,std::nullptr_t>
PUBLIC	??$move@AEAV?$allocator@V?$vector@HV?$allocator@H@std@@@std@@@std@@@std@@YA$$QEAV?$allocator@V?$vector@HV?$allocator@H@std@@@std@@@0@AEAV10@@Z ; std::move<std::allocator<std::vector<int,std::allocator<int> > > &>
PUBLIC	??$_Emplace_one_at_back@V?$vector@HV?$allocator@H@std@@@std@@@?$vector@V?$vector@HV?$allocator@H@std@@@std@@V?$allocator@V?$vector@HV?$allocator@H@std@@@std@@@2@@std@@AEAAAEAV?$vector@HV?$allocator@H@std@@@1@$$QEAV21@@Z ; std::vector<std::vector<int,std::allocator<int> >,std::allocator<std::vector<int,std::allocator<int> > > >::_Emplace_one_at_back<std::vector<int,std::allocator<int> > >
PUBLIC	??$move@AEAV?$vector@HV?$allocator@H@std@@@std@@@std@@YA$$QEAV?$vector@HV?$allocator@H@std@@@0@AEAV10@@Z ; std::move<std::vector<int,std::allocator<int> > &>
PUBLIC	??$destroy@V?$vector@HV?$allocator@H@std@@@std@@@?$_Default_allocator_traits@V?$allocator@V?$vector@HV?$allocator@H@std@@@std@@@std@@@std@@SAXAEAV?$allocator@V?$vector@HV?$allocator@H@std@@@std@@@1@QEAV?$vector@HV?$allocator@H@std@@@1@@Z ; std::_Default_allocator_traits<std::allocator<std::vector<int,std::allocator<int> > > >::destroy<std::vector<int,std::allocator<int> > >
PUBLIC	??$_Unfancy@V?$vector@HV?$allocator@H@std@@@std@@@std@@YAPEAV?$vector@HV?$allocator@H@std@@@0@PEAV10@@Z ; std::_Unfancy<std::vector<int,std::allocator<int> > >
PUBLIC	??$_Move_unchecked@PEAV?$vector@HV?$allocator@H@std@@@std@@PEAV12@@std@@YAPEAV?$vector@HV?$allocator@H@std@@@0@PEAV10@00@Z ; std::_Move_unchecked<std::vector<int,std::allocator<int> > *,std::vector<int,std::allocator<int> > *>
PUBLIC	??$addressof@V?$_Vector_val@U?$_Simple_types@V?$vector@HV?$allocator@H@std@@@std@@@std@@@std@@@std@@YAPEAV?$_Vector_val@U?$_Simple_types@V?$vector@HV?$allocator@H@std@@@std@@@std@@@0@AEAV10@@Z ; std::addressof<std::_Vector_val<std::_Simple_types<std::vector<int,std::allocator<int> > > > >
PUBLIC	??$_Erase_head@V?$allocator@U?$_Tree_node@HPEAX@std@@@std@@@?$_Tree_val@U?$_Tree_simple_types@H@std@@@std@@QEAAXAEAV?$allocator@U?$_Tree_node@HPEAX@std@@@1@@Z ; std::_Tree_val<std::_Tree_simple_types<int> >::_Erase_head<std::allocator<std::_Tree_node<int,void *> > >
PUBLIC	??$_Erase_head@V?$allocator@U?$_Tree_node@V?$vector@HV?$allocator@H@std@@@std@@PEAX@std@@@std@@@?$_Tree_val@U?$_Tree_simple_types@V?$vector@HV?$allocator@H@std@@@std@@@std@@@std@@QEAAXAEAV?$allocator@U?$_Tree_node@V?$vector@HV?$allocator@H@std@@@std@@PEAX@std@@@1@@Z ; std::_Tree_val<std::_Tree_simple_types<std::vector<int,std::allocator<int> > > >::_Erase_head<std::allocator<std::_Tree_node<std::vector<int,std::allocator<int> >,void *> > >
PUBLIC	??$endl@DU?$char_traits@D@std@@@std@@YAAEAV?$basic_ostream@DU?$char_traits@D@std@@@0@AEAV10@@Z ; std::endl<char,std::char_traits<char> >
PUBLIC	??$?6U?$char_traits@D@std@@@std@@YAAEAV?$basic_ostream@DU?$char_traits@D@std@@@0@AEAV10@PEBD@Z ; std::operator<<<std::char_traits<char> >
PUBLIC	??$_Get_unwrapped@AEBV?$_Vector_iterator@V?$_Vector_val@U?$_Simple_types@V?$vector@HV?$allocator@H@std@@@std@@@std@@@std@@@std@@@std@@YA?A_TAEBV?$_Vector_iterator@V?$_Vector_val@U?$_Simple_types@V?$vector@HV?$allocator@H@std@@@std@@@std@@@std@@@0@@Z ; std::_Get_unwrapped<std::_Vector_iterator<std::_Vector_val<std::_Simple_types<std::vector<int,std::allocator<int> > > > > const &>
PUBLIC	??$_Get_unwrapped@AEAV?$_Vector_iterator@V?$_Vector_val@U?$_Simple_types@V?$vector@HV?$allocator@H@std@@@std@@@std@@@std@@@std@@@std@@YA?A_TAEAV?$_Vector_iterator@V?$_Vector_val@U?$_Simple_types@V?$vector@HV?$allocator@H@std@@@std@@@std@@@std@@@0@@Z ; std::_Get_unwrapped<std::_Vector_iterator<std::_Vector_val<std::_Simple_types<std::vector<int,std::allocator<int> > > > > &>
PUBLIC	??$find@V?$_Vector_iterator@V?$_Vector_val@U?$_Simple_types@V?$vector@HV?$allocator@H@std@@@std@@@std@@@std@@@std@@V?$vector@HV?$allocator@H@std@@@2@@std@@YA?AV?$_Vector_iterator@V?$_Vector_val@U?$_Simple_types@V?$vector@HV?$allocator@H@std@@@std@@@std@@@std@@@0@V10@V10@AEBV?$vector@HV?$allocator@H@std@@@0@@Z ; std::find<std::_Vector_iterator<std::_Vector_val<std::_Simple_types<std::vector<int,std::allocator<int> > > > >,std::vector<int,std::allocator<int> > >
PUBLIC	??$_Get_unwrapped@AEAV?$_Tree_const_iterator@V?$_Tree_val@U?$_Tree_simple_types@V?$vector@HV?$allocator@H@std@@@std@@@std@@@std@@@std@@@std@@YA?A_TAEAV?$_Tree_const_iterator@V?$_Tree_val@U?$_Tree_simple_types@V?$vector@HV?$allocator@H@std@@@std@@@std@@@std@@@0@@Z ; std::_Get_unwrapped<std::_Tree_const_iterator<std::_Tree_val<std::_Tree_simple_types<std::vector<int,std::allocator<int> > > > > &>
PUBLIC	??$assign@V?$_Tree_const_iterator@V?$_Tree_val@U?$_Tree_simple_types@V?$vector@HV?$allocator@H@std@@@std@@@std@@@std@@@std@@$0A@@?$vector@V?$vector@HV?$allocator@H@std@@@std@@V?$allocator@V?$vector@HV?$allocator@H@std@@@std@@@2@@std@@QEAAXV?$_Tree_const_iterator@V?$_Tree_val@U?$_Tree_simple_types@V?$vector@HV?$allocator@H@std@@@std@@@std@@@std@@@1@0@Z ; std::vector<std::vector<int,std::allocator<int> >,std::allocator<std::vector<int,std::allocator<int> > > >::assign<std::_Tree_const_iterator<std::_Tree_val<std::_Tree_simple_types<std::vector<int,std::allocator<int> > > > >,0>
PUBLIC	??$?0V?$_Vector_iterator@V?$_Vector_val@U?$_Simple_types@V?$vector@HV?$allocator@H@std@@@std@@@std@@@std@@@std@@@?$set@V?$vector@HV?$allocator@H@std@@@std@@U?$less@V?$vector@HV?$allocator@H@std@@@std@@@2@V?$allocator@V?$vector@HV?$allocator@H@std@@@std@@@2@@std@@QEAA@V?$_Vector_iterator@V?$_Vector_val@U?$_Simple_types@V?$vector@HV?$allocator@H@std@@@std@@@std@@@std@@@1@0@Z ; std::set<std::vector<int,std::allocator<int> >,std::less<std::vector<int,std::allocator<int> > >,std::allocator<std::vector<int,std::allocator<int> > > >::set<std::vector<int,std::allocator<int> >,std::less<std::vector<int,std::allocator<int> > >,std::allocator<std::vector<int,std::allocator<int> > > ><std::_Vector_iterator<std::_Vector_val<std::_Simple_types<std::vector<int,std::allocator<int> > > > > >
PUBLIC	??$_Get_unwrapped@AEAV?$_Tree_const_iterator@V?$_Tree_val@U?$_Tree_simple_types@H@std@@@std@@@std@@@std@@YA?A_TAEAV?$_Tree_const_iterator@V?$_Tree_val@U?$_Tree_simple_types@H@std@@@std@@@0@@Z ; std::_Get_unwrapped<std::_Tree_const_iterator<std::_Tree_val<std::_Tree_simple_types<int> > > &>
PUBLIC	??$assign@V?$_Tree_const_iterator@V?$_Tree_val@U?$_Tree_simple_types@H@std@@@std@@@std@@$0A@@?$vector@HV?$allocator@H@std@@@std@@QEAAXV?$_Tree_const_iterator@V?$_Tree_val@U?$_Tree_simple_types@H@std@@@std@@@1@0@Z ; std::vector<int,std::allocator<int> >::assign<std::_Tree_const_iterator<std::_Tree_val<std::_Tree_simple_types<int> > >,0>
PUBLIC	??$?0V?$_Vector_iterator@V?$_Vector_val@U?$_Simple_types@H@std@@@std@@@std@@@?$set@HU?$less@H@std@@V?$allocator@H@2@@std@@QEAA@V?$_Vector_iterator@V?$_Vector_val@U?$_Simple_types@H@std@@@std@@@1@0@Z ; std::set<int,std::less<int>,std::allocator<int> >::set<int,std::less<int>,std::allocator<int> ><std::_Vector_iterator<std::_Vector_val<std::_Simple_types<int> > > >
PUBLIC	?_Verify_offset@?$_Vector_const_iterator@V?$_Vector_val@U?$_Simple_types@V?$vector@HV?$allocator@H@std@@@std@@@std@@@std@@@std@@QEBAX_J@Z ; std::_Vector_const_iterator<std::_Vector_val<std::_Simple_types<std::vector<int,std::allocator<int> > > > >::_Verify_offset
PUBLIC	??Y?$_Vector_const_iterator@V?$_Vector_val@U?$_Simple_types@V?$vector@HV?$allocator@H@std@@@std@@@std@@@std@@@std@@QEAAAEAV01@_J@Z ; std::_Vector_const_iterator<std::_Vector_val<std::_Simple_types<std::vector<int,std::allocator<int> > > > >::operator+=
PUBLIC	?deallocate@?$allocator@H@std@@QEAAXQEAH_K@Z	; std::allocator<int>::deallocate
PUBLIC	?_Get_first@?$_Compressed_pair@V?$allocator@H@std@@V?$_Vector_val@U?$_Simple_types@H@std@@@2@$00@std@@QEAAAEAV?$allocator@H@2@XZ ; std::_Compressed_pair<std::allocator<int>,std::_Vector_val<std::_Simple_types<int> >,1>::_Get_first
PUBLIC	?_Get_first@?$_Compressed_pair@V?$allocator@H@std@@V?$_Vector_val@U?$_Simple_types@H@std@@@2@$00@std@@QEBAAEBV?$allocator@H@2@XZ ; std::_Compressed_pair<std::allocator<int>,std::_Vector_val<std::_Simple_types<int> >,1>::_Get_first
PUBLIC	?deallocate@?$allocator@V?$vector@HV?$allocator@H@std@@@std@@@std@@QEAAXQEAV?$vector@HV?$allocator@H@std@@@2@_K@Z ; std::allocator<std::vector<int,std::allocator<int> > >::deallocate
PUBLIC	?_Get_first@?$_Compressed_pair@V?$allocator@V?$vector@HV?$allocator@H@std@@@std@@@std@@V?$_Vector_val@U?$_Simple_types@V?$vector@HV?$allocator@H@std@@@std@@@std@@@2@$00@std@@QEAAAEAV?$allocator@V?$vector@HV?$allocator@H@std@@@std@@@2@XZ ; std::_Compressed_pair<std::allocator<std::vector<int,std::allocator<int> > >,std::_Vector_val<std::_Simple_types<std::vector<int,std::allocator<int> > > >,1>::_Get_first
PUBLIC	?_Get_first@?$_Compressed_pair@V?$allocator@U?$_Tree_node@HPEAX@std@@@std@@V?$_Tree_val@U?$_Tree_simple_types@H@std@@@2@$00@std@@QEAAAEAV?$allocator@U?$_Tree_node@HPEAX@std@@@2@XZ ; std::_Compressed_pair<std::allocator<std::_Tree_node<int,void *> >,std::_Tree_val<std::_Tree_simple_types<int> >,1>::_Get_first
PUBLIC	??Z?$_Vector_const_iterator@V?$_Vector_val@U?$_Simple_types@V?$vector@HV?$allocator@H@std@@@std@@@std@@@std@@@std@@QEAAAEAV01@_J@Z ; std::_Vector_const_iterator<std::_Vector_val<std::_Simple_types<std::vector<int,std::allocator<int> > > > >::operator-=
PUBLIC	?_Get_first@?$_Compressed_pair@V?$allocator@U?$_Tree_node@V?$vector@HV?$allocator@H@std@@@std@@PEAX@std@@@std@@V?$_Tree_val@U?$_Tree_simple_types@V?$vector@HV?$allocator@H@std@@@std@@@std@@@2@$00@std@@QEAAAEAV?$allocator@U?$_Tree_node@V?$vector@HV?$allocator@H@std@@@std@@PEAX@std@@@2@XZ ; std::_Compressed_pair<std::allocator<std::_Tree_node<std::vector<int,std::allocator<int> >,void *> >,std::_Tree_val<std::_Tree_simple_types<std::vector<int,std::allocator<int> > > >,1>::_Get_first
PUBLIC	??0_Sentry_base@?$basic_ostream@DU?$char_traits@D@std@@@std@@QEAA@AEAV12@@Z ; std::basic_ostream<char,std::char_traits<char> >::_Sentry_base::_Sentry_base
PUBLIC	??1_Sentry_base@?$basic_ostream@DU?$char_traits@D@std@@@std@@QEAA@XZ ; std::basic_ostream<char,std::char_traits<char> >::_Sentry_base::~_Sentry_base
PUBLIC	?length@?$_Narrow_char_traits@DH@std@@SA_KQEBD@Z ; std::_Narrow_char_traits<char,int>::length
PUBLIC	?eq_int_type@?$_Narrow_char_traits@DH@std@@SA_NAEBH0@Z ; std::_Narrow_char_traits<char,int>::eq_int_type
PUBLIC	?eof@?$_Narrow_char_traits@DH@std@@SAHXZ	; std::_Narrow_char_traits<char,int>::eof
PUBLIC	?select_on_container_copy_construction@?$_Default_allocator_traits@V?$allocator@H@std@@@std@@SA?AV?$allocator@H@2@AEBV32@@Z ; std::_Default_allocator_traits<std::allocator<int> >::select_on_container_copy_construction
PUBLIC	?_Tidy@?$vector@HV?$allocator@H@std@@@std@@AEAAXXZ ; std::vector<int,std::allocator<int> >::_Tidy
PUBLIC	?_Orphan_range@?$vector@HV?$allocator@H@std@@@std@@AEBAXPEAH0@Z ; std::vector<int,std::allocator<int> >::_Orphan_range
PUBLIC	?_Getal@?$vector@HV?$allocator@H@std@@@std@@AEAAAEAV?$allocator@H@2@XZ ; std::vector<int,std::allocator<int> >::_Getal
PUBLIC	?_Getal@?$vector@HV?$allocator@H@std@@@std@@AEBAAEBV?$allocator@H@2@XZ ; std::vector<int,std::allocator<int> >::_Getal
PUBLIC	?_Take_contents@?$_Vector_val@U?$_Simple_types@H@std@@@std@@QEAAXAEAV12@@Z ; std::_Vector_val<std::_Simple_types<int> >::_Take_contents
PUBLIC	?_Tidy@?$vector@V?$vector@HV?$allocator@H@std@@@std@@V?$allocator@V?$vector@HV?$allocator@H@std@@@std@@@2@@std@@AEAAXXZ ; std::vector<std::vector<int,std::allocator<int> >,std::allocator<std::vector<int,std::allocator<int> > > >::_Tidy
PUBLIC	?_Orphan_range@?$vector@V?$vector@HV?$allocator@H@std@@@std@@V?$allocator@V?$vector@HV?$allocator@H@std@@@std@@@2@@std@@AEBAXPEAV?$vector@HV?$allocator@H@std@@@2@0@Z ; std::vector<std::vector<int,std::allocator<int> >,std::allocator<std::vector<int,std::allocator<int> > > >::_Orphan_range
PUBLIC	?_Getal@?$vector@V?$vector@HV?$allocator@H@std@@@std@@V?$allocator@V?$vector@HV?$allocator@H@std@@@std@@@2@@std@@AEAAAEAV?$allocator@V?$vector@HV?$allocator@H@std@@@std@@@2@XZ ; std::vector<std::vector<int,std::allocator<int> >,std::allocator<std::vector<int,std::allocator<int> > > >::_Getal
PUBLIC	?_Getal@?$_Tree@V?$_Tset_traits@HU?$less@H@std@@V?$allocator@H@2@$0A@@std@@@std@@IEAAAEAV?$allocator@U?$_Tree_node@HPEAX@std@@@2@XZ ; std::_Tree<std::_Tset_traits<int,std::less<int>,std::allocator<int>,0> >::_Getal
PUBLIC	?_Get_scary@?$_Tree@V?$_Tset_traits@HU?$less@H@std@@V?$allocator@H@2@$0A@@std@@@std@@IEAAPEAV?$_Tree_val@U?$_Tree_simple_types@H@std@@@2@XZ ; std::_Tree<std::_Tset_traits<int,std::less<int>,std::allocator<int>,0> >::_Get_scary
PUBLIC	??0?$_Vector_const_iterator@V?$_Vector_val@U?$_Simple_types@H@std@@@std@@@std@@QEAA@PEAHPEBU_Container_base0@1@@Z ; std::_Vector_const_iterator<std::_Vector_val<std::_Simple_types<int> > >::_Vector_const_iterator<std::_Vector_val<std::_Simple_types<int> > >
PUBLIC	?begin@?$initializer_list@H@std@@QEBAPEBHXZ	; std::initializer_list<int>::begin
PUBLIC	??0?$_Tree_unchecked_const_iterator@V?$_Tree_val@U?$_Tree_simple_types@H@std@@@std@@U_Iterator_base0@2@@std@@QEAA@PEAU?$_Tree_node@HPEAX@1@PEBV?$_Tree_val@U?$_Tree_simple_types@H@std@@@1@@Z ; std::_Tree_unchecked_const_iterator<std::_Tree_val<std::_Tree_simple_types<int> >,std::_Iterator_base0>::_Tree_unchecked_const_iterator<std::_Tree_val<std::_Tree_simple_types<int> >,std::_Iterator_base0>
PUBLIC	??0?$_Vector_const_iterator@V?$_Vector_val@U?$_Simple_types@V?$vector@HV?$allocator@H@std@@@std@@@std@@@std@@@std@@QEAA@PEAV?$vector@HV?$allocator@H@std@@@1@PEBU_Container_base0@1@@Z ; std::_Vector_const_iterator<std::_Vector_val<std::_Simple_types<std::vector<int,std::allocator<int> > > > >::_Vector_const_iterator<std::_Vector_val<std::_Simple_types<std::vector<int,std::allocator<int> > > > >
PUBLIC	?_Compat@?$_Vector_const_iterator@V?$_Vector_val@U?$_Simple_types@V?$vector@HV?$allocator@H@std@@@std@@@std@@@std@@@std@@QEBAXAEBV12@@Z ; std::_Vector_const_iterator<std::_Vector_val<std::_Simple_types<std::vector<int,std::allocator<int> > > > >::_Compat
PUBLIC	??Z?$_Vector_iterator@V?$_Vector_val@U?$_Simple_types@V?$vector@HV?$allocator@H@std@@@std@@@std@@@std@@@std@@QEAAAEAV01@_J@Z ; std::_Vector_iterator<std::_Vector_val<std::_Simple_types<std::vector<int,std::allocator<int> > > > >::operator-=
PUBLIC	?_Getal@?$_Tree@V?$_Tset_traits@V?$vector@HV?$allocator@H@std@@@std@@U?$less@V?$vector@HV?$allocator@H@std@@@std@@@2@V?$allocator@V?$vector@HV?$allocator@H@std@@@std@@@2@$0A@@std@@@std@@IEAAAEAV?$allocator@U?$_Tree_node@V?$vector@HV?$allocator@H@std@@@std@@PEAX@std@@@2@XZ ; std::_Tree<std::_Tset_traits<std::vector<int,std::allocator<int> >,std::less<std::vector<int,std::allocator<int> > >,std::allocator<std::vector<int,std::allocator<int> > >,0> >::_Getal
PUBLIC	?_Get_scary@?$_Tree@V?$_Tset_traits@V?$vector@HV?$allocator@H@std@@@std@@U?$less@V?$vector@HV?$allocator@H@std@@@std@@@2@V?$allocator@V?$vector@HV?$allocator@H@std@@@std@@@2@$0A@@std@@@std@@IEAAPEAV?$_Tree_val@U?$_Tree_simple_types@V?$vector@HV?$allocator@H@std@@@std@@@std@@@2@XZ ; std::_Tree<std::_Tset_traits<std::vector<int,std::allocator<int> >,std::less<std::vector<int,std::allocator<int> > >,std::allocator<std::vector<int,std::allocator<int> > >,0> >::_Get_scary
PUBLIC	??0?$_Tree_unchecked_const_iterator@V?$_Tree_val@U?$_Tree_simple_types@V?$vector@HV?$allocator@H@std@@@std@@@std@@@std@@U_Iterator_base0@2@@std@@QEAA@PEAU?$_Tree_node@V?$vector@HV?$allocator@H@std@@@std@@PEAX@1@PEBV?$_Tree_val@U?$_Tree_simple_types@V?$vector@HV?$allocator@H@std@@@std@@@std@@@1@@Z ; std::_Tree_unchecked_const_iterator<std::_Tree_val<std::_Tree_simple_types<std::vector<int,std::allocator<int> > > >,std::_Iterator_base0>::_Tree_unchecked_const_iterator<std::_Tree_val<std::_Tree_simple_types<std::vector<int,std::allocator<int> > > >,std::_Iterator_base0>
PUBLIC	??0sentry@?$basic_ostream@DU?$char_traits@D@std@@@std@@QEAA@AEAV12@@Z ; std::basic_ostream<char,std::char_traits<char> >::sentry::sentry
PUBLIC	??1sentry@?$basic_ostream@DU?$char_traits@D@std@@@std@@QEAA@XZ ; std::basic_ostream<char,std::char_traits<char> >::sentry::~sentry
PUBLIC	??Bsentry@?$basic_ostream@DU?$char_traits@D@std@@@std@@QEBA_NXZ ; std::basic_ostream<char,std::char_traits<char> >::sentry::operator bool
PUBLIC	??0?$_Vector_iterator@V?$_Vector_val@U?$_Simple_types@H@std@@@std@@@std@@QEAA@PEAHPEBU_Container_base0@1@@Z ; std::_Vector_iterator<std::_Vector_val<std::_Simple_types<int> > >::_Vector_iterator<std::_Vector_val<std::_Simple_types<int> > >
PUBLIC	??0?$_Vector_iterator@V?$_Vector_val@U?$_Simple_types@V?$vector@HV?$allocator@H@std@@@std@@@std@@@std@@@std@@QEAA@PEAV?$vector@HV?$allocator@H@std@@@1@PEBU_Container_base0@1@@Z ; std::_Vector_iterator<std::_Vector_val<std::_Simple_types<std::vector<int,std::allocator<int> > > > >::_Vector_iterator<std::_Vector_val<std::_Simple_types<std::vector<int,std::allocator<int> > > > >
PUBLIC	??0?$_Tree_const_iterator@V?$_Tree_val@U?$_Tree_simple_types@H@std@@@std@@@std@@QEAA@PEAU?$_Tree_node@HPEAX@1@PEBV?$_Tree_val@U?$_Tree_simple_types@H@std@@@1@@Z ; std::_Tree_const_iterator<std::_Tree_val<std::_Tree_simple_types<int> > >::_Tree_const_iterator<std::_Tree_val<std::_Tree_simple_types<int> > >
PUBLIC	?__autoclassinit2@?$_Vector_iterator@V?$_Vector_val@U?$_Simple_types@V?$vector@HV?$allocator@H@std@@@std@@@std@@@std@@@std@@QEAAX_K@Z ; std::_Vector_iterator<std::_Vector_val<std::_Simple_types<std::vector<int,std::allocator<int> > > > >::__autoclassinit2
PUBLIC	??0?$_Tree_const_iterator@V?$_Tree_val@U?$_Tree_simple_types@V?$vector@HV?$allocator@H@std@@@std@@@std@@@std@@@std@@QEAA@PEAU?$_Tree_node@V?$vector@HV?$allocator@H@std@@@std@@PEAX@1@PEBV?$_Tree_val@U?$_Tree_simple_types@V?$vector@HV?$allocator@H@std@@@std@@@std@@@1@@Z ; std::_Tree_const_iterator<std::_Tree_val<std::_Tree_simple_types<std::vector<int,std::allocator<int> > > > >::_Tree_const_iterator<std::_Tree_val<std::_Tree_simple_types<std::vector<int,std::allocator<int> > > > >
PUBLIC	??0?$allocator@H@std@@QEAA@XZ			; std::allocator<int>::allocator<int>
PUBLIC	??0?$vector@HV?$allocator@H@std@@@std@@QEAA@XZ	; std::vector<int,std::allocator<int> >::vector<int,std::allocator<int> >
PUBLIC	??0?$vector@HV?$allocator@H@std@@@std@@QEAA@_KAEBHAEBV?$allocator@H@1@@Z ; std::vector<int,std::allocator<int> >::vector<int,std::allocator<int> >
PUBLIC	??0?$vector@HV?$allocator@H@std@@@std@@QEAA@AEBV01@@Z ; std::vector<int,std::allocator<int> >::vector<int,std::allocator<int> >
PUBLIC	??4?$vector@HV?$allocator@H@std@@@std@@QEAAAEAV01@$$QEAV01@@Z ; std::vector<int,std::allocator<int> >::operator=
PUBLIC	??1?$vector@HV?$allocator@H@std@@@std@@QEAA@XZ	; std::vector<int,std::allocator<int> >::~vector<int,std::allocator<int> >
PUBLIC	?push_back@?$vector@HV?$allocator@H@std@@@std@@QEAAXAEBH@Z ; std::vector<int,std::allocator<int> >::push_back
PUBLIC	?size@?$initializer_list@H@std@@QEBA_KXZ	; std::initializer_list<int>::size
PUBLIC	??4?$vector@HV?$allocator@H@std@@@std@@QEAAAEAV01@V?$initializer_list@H@1@@Z ; std::vector<int,std::allocator<int> >::operator=
PUBLIC	?resize@?$vector@HV?$allocator@H@std@@@std@@QEAAX_K@Z ; std::vector<int,std::allocator<int> >::resize
PUBLIC	?pop_back@?$vector@HV?$allocator@H@std@@@std@@QEAAXXZ ; std::vector<int,std::allocator<int> >::pop_back
PUBLIC	?begin@?$vector@HV?$allocator@H@std@@@std@@QEAA?AV?$_Vector_iterator@V?$_Vector_val@U?$_Simple_types@H@std@@@std@@@2@XZ ; std::vector<int,std::allocator<int> >::begin
PUBLIC	?end@?$vector@HV?$allocator@H@std@@@std@@QEAA?AV?$_Vector_iterator@V?$_Vector_val@U?$_Simple_types@H@std@@@std@@@2@XZ ; std::vector<int,std::allocator<int> >::end
PUBLIC	?_Unchecked_begin@?$vector@HV?$allocator@H@std@@@std@@QEAAPEAHXZ ; std::vector<int,std::allocator<int> >::_Unchecked_begin
PUBLIC	?_Unchecked_end@?$vector@HV?$allocator@H@std@@@std@@QEAAPEAHXZ ; std::vector<int,std::allocator<int> >::_Unchecked_end
PUBLIC	?size@?$vector@HV?$allocator@H@std@@@std@@QEBA_KXZ ; std::vector<int,std::allocator<int> >::size
PUBLIC	??A?$vector@HV?$allocator@H@std@@@std@@QEAAAEAH_K@Z ; std::vector<int,std::allocator<int> >::operator[]
PUBLIC	?back@?$vector@HV?$allocator@H@std@@@std@@QEAAAEAHXZ ; std::vector<int,std::allocator<int> >::back
PUBLIC	??0?$vector@V?$vector@HV?$allocator@H@std@@@std@@V?$allocator@V?$vector@HV?$allocator@H@std@@@std@@@2@@std@@QEAA@XZ ; std::vector<std::vector<int,std::allocator<int> >,std::allocator<std::vector<int,std::allocator<int> > > >::vector<std::vector<int,std::allocator<int> >,std::allocator<std::vector<int,std::allocator<int> > > >
PUBLIC	??0?$vector@V?$vector@HV?$allocator@H@std@@@std@@V?$allocator@V?$vector@HV?$allocator@H@std@@@std@@@2@@std@@QEAA@$$QEAV01@@Z ; std::vector<std::vector<int,std::allocator<int> >,std::allocator<std::vector<int,std::allocator<int> > > >::vector<std::vector<int,std::allocator<int> >,std::allocator<std::vector<int,std::allocator<int> > > >
PUBLIC	??1?$vector@V?$vector@HV?$allocator@H@std@@@std@@V?$allocator@V?$vector@HV?$allocator@H@std@@@std@@@2@@std@@QEAA@XZ ; std::vector<std::vector<int,std::allocator<int> >,std::allocator<std::vector<int,std::allocator<int> > > >::~vector<std::vector<int,std::allocator<int> >,std::allocator<std::vector<int,std::allocator<int> > > >
PUBLIC	?push_back@?$vector@V?$vector@HV?$allocator@H@std@@@std@@V?$allocator@V?$vector@HV?$allocator@H@std@@@std@@@2@@std@@QEAAX$$QEAV?$vector@HV?$allocator@H@std@@@2@@Z ; std::vector<std::vector<int,std::allocator<int> >,std::allocator<std::vector<int,std::allocator<int> > > >::push_back
PUBLIC	?erase@?$vector@V?$vector@HV?$allocator@H@std@@@std@@V?$allocator@V?$vector@HV?$allocator@H@std@@@std@@@2@@std@@QEAA?AV?$_Vector_iterator@V?$_Vector_val@U?$_Simple_types@V?$vector@HV?$allocator@H@std@@@std@@@std@@@std@@@2@V?$_Vector_const_iterator@V?$_Vector_val@U?$_Simple_types@V?$vector@HV?$allocator@H@std@@@std@@@std@@@std@@@2@@Z ; std::vector<std::vector<int,std::allocator<int> >,std::allocator<std::vector<int,std::allocator<int> > > >::erase
PUBLIC	?begin@?$vector@V?$vector@HV?$allocator@H@std@@@std@@V?$allocator@V?$vector@HV?$allocator@H@std@@@std@@@2@@std@@QEAA?AV?$_Vector_iterator@V?$_Vector_val@U?$_Simple_types@V?$vector@HV?$allocator@H@std@@@std@@@std@@@std@@@2@XZ ; std::vector<std::vector<int,std::allocator<int> >,std::allocator<std::vector<int,std::allocator<int> > > >::begin
PUBLIC	?end@?$vector@V?$vector@HV?$allocator@H@std@@@std@@V?$allocator@V?$vector@HV?$allocator@H@std@@@std@@@2@@std@@QEAA?AV?$_Vector_iterator@V?$_Vector_val@U?$_Simple_types@V?$vector@HV?$allocator@H@std@@@std@@@std@@@std@@@2@XZ ; std::vector<std::vector<int,std::allocator<int> >,std::allocator<std::vector<int,std::allocator<int> > > >::end
PUBLIC	?_Unchecked_begin@?$vector@V?$vector@HV?$allocator@H@std@@@std@@V?$allocator@V?$vector@HV?$allocator@H@std@@@std@@@2@@std@@QEAAPEAV?$vector@HV?$allocator@H@std@@@2@XZ ; std::vector<std::vector<int,std::allocator<int> >,std::allocator<std::vector<int,std::allocator<int> > > >::_Unchecked_begin
PUBLIC	?_Unchecked_end@?$vector@V?$vector@HV?$allocator@H@std@@@std@@V?$allocator@V?$vector@HV?$allocator@H@std@@@std@@@2@@std@@QEAAPEAV?$vector@HV?$allocator@H@std@@@2@XZ ; std::vector<std::vector<int,std::allocator<int> >,std::allocator<std::vector<int,std::allocator<int> > > >::_Unchecked_end
PUBLIC	?back@?$vector@V?$vector@HV?$allocator@H@std@@@std@@V?$allocator@V?$vector@HV?$allocator@H@std@@@std@@@2@@std@@QEAAAEAV?$vector@HV?$allocator@H@std@@@2@XZ ; std::vector<std::vector<int,std::allocator<int> >,std::allocator<std::vector<int,std::allocator<int> > > >::back
PUBLIC	??1?$_Tree@V?$_Tset_traits@HU?$less@H@std@@V?$allocator@H@2@$0A@@std@@@std@@QEAA@XZ ; std::_Tree<std::_Tset_traits<int,std::less<int>,std::allocator<int>,0> >::~_Tree<std::_Tset_traits<int,std::less<int>,std::allocator<int>,0> >
PUBLIC	?begin@?$_Tree@V?$_Tset_traits@HU?$less@H@std@@V?$allocator@H@2@$0A@@std@@@std@@QEAA?AV?$_Tree_const_iterator@V?$_Tree_val@U?$_Tree_simple_types@H@std@@@std@@@2@XZ ; std::_Tree<std::_Tset_traits<int,std::less<int>,std::allocator<int>,0> >::begin
PUBLIC	?end@?$_Tree@V?$_Tset_traits@HU?$less@H@std@@V?$allocator@H@2@$0A@@std@@@std@@QEAA?AV?$_Tree_const_iterator@V?$_Tree_val@U?$_Tree_simple_types@H@std@@@std@@@2@XZ ; std::_Tree<std::_Tset_traits<int,std::less<int>,std::allocator<int>,0> >::end
PUBLIC	??0?$initializer_list@H@std@@QEAA@PEBH0@Z	; std::initializer_list<int>::initializer_list<int>
PUBLIC	??8?$_Vector_const_iterator@V?$_Vector_val@U?$_Simple_types@V?$vector@HV?$allocator@H@std@@@std@@@std@@@std@@@std@@QEBA_NAEBV01@@Z ; std::_Vector_const_iterator<std::_Vector_val<std::_Simple_types<std::vector<int,std::allocator<int> > > > >::operator==
PUBLIC	??G?$_Vector_iterator@V?$_Vector_val@U?$_Simple_types@V?$vector@HV?$allocator@H@std@@@std@@@std@@@std@@@std@@QEBA?AV01@_J@Z ; std::_Vector_iterator<std::_Vector_val<std::_Simple_types<std::vector<int,std::allocator<int> > > > >::operator-
PUBLIC	??1?$_Tree@V?$_Tset_traits@V?$vector@HV?$allocator@H@std@@@std@@U?$less@V?$vector@HV?$allocator@H@std@@@std@@@2@V?$allocator@V?$vector@HV?$allocator@H@std@@@std@@@2@$0A@@std@@@std@@QEAA@XZ ; std::_Tree<std::_Tset_traits<std::vector<int,std::allocator<int> >,std::less<std::vector<int,std::allocator<int> > >,std::allocator<std::vector<int,std::allocator<int> > >,0> >::~_Tree<std::_Tset_traits<std::vector<int,std::allocator<int> >,std::less<std::vector<int,std::allocator<int> > >,std::allocator<std::vector<int,std::allocator<int> > >,0> >
PUBLIC	?begin@?$_Tree@V?$_Tset_traits@V?$vector@HV?$allocator@H@std@@@std@@U?$less@V?$vector@HV?$allocator@H@std@@@std@@@2@V?$allocator@V?$vector@HV?$allocator@H@std@@@std@@@2@$0A@@std@@@std@@QEAA?AV?$_Tree_const_iterator@V?$_Tree_val@U?$_Tree_simple_types@V?$vector@HV?$allocator@H@std@@@std@@@std@@@std@@@2@XZ ; std::_Tree<std::_Tset_traits<std::vector<int,std::allocator<int> >,std::less<std::vector<int,std::allocator<int> > >,std::allocator<std::vector<int,std::allocator<int> > >,0> >::begin
PUBLIC	?end@?$_Tree@V?$_Tset_traits@V?$vector@HV?$allocator@H@std@@@std@@U?$less@V?$vector@HV?$allocator@H@std@@@std@@@2@V?$allocator@V?$vector@HV?$allocator@H@std@@@std@@@2@$0A@@std@@@std@@QEAA?AV?$_Tree_const_iterator@V?$_Tree_val@U?$_Tree_simple_types@V?$vector@HV?$allocator@H@std@@@std@@@std@@@std@@@2@XZ ; std::_Tree<std::_Tset_traits<std::vector<int,std::allocator<int> >,std::less<std::vector<int,std::allocator<int> > >,std::allocator<std::vector<int,std::allocator<int> > >,0> >::end
PUBLIC	??1Solution@@QEAA@XZ				; Solution::~Solution
PUBLIC	?__autoclassinit2@?$vector@HV?$allocator@H@std@@@std@@QEAAX_K@Z ; std::vector<int,std::allocator<int> >::__autoclassinit2
PUBLIC	??0Solution@@QEAA@XZ				; Solution::Solution
PUBLIC	main
PUBLIC	?__autoclassinit2@?$set@V?$vector@HV?$allocator@H@std@@@std@@U?$less@V?$vector@HV?$allocator@H@std@@@std@@@2@V?$allocator@V?$vector@HV?$allocator@H@std@@@std@@@2@@std@@QEAAX_K@Z ; std::set<std::vector<int,std::allocator<int> >,std::less<std::vector<int,std::allocator<int> > >,std::allocator<std::vector<int,std::allocator<int> > > >::__autoclassinit2
PUBLIC	??1?$set@V?$vector@HV?$allocator@H@std@@@std@@U?$less@V?$vector@HV?$allocator@H@std@@@std@@@2@V?$allocator@V?$vector@HV?$allocator@H@std@@@std@@@2@@std@@QEAA@XZ ; std::set<std::vector<int,std::allocator<int> >,std::less<std::vector<int,std::allocator<int> > >,std::allocator<std::vector<int,std::allocator<int> > > >::~set<std::vector<int,std::allocator<int> >,std::less<std::vector<int,std::allocator<int> > >,std::allocator<std::vector<int,std::allocator<int> > > >
PUBLIC	?__autoclassinit2@?$vector@V?$vector@HV?$allocator@H@std@@@std@@V?$allocator@V?$vector@HV?$allocator@H@std@@@std@@@2@@std@@QEAAX_K@Z ; std::vector<std::vector<int,std::allocator<int> >,std::allocator<std::vector<int,std::allocator<int> > > >::__autoclassinit2
PUBLIC	?__autoclassinit2@?$set@HU?$less@H@std@@V?$allocator@H@2@@std@@QEAAX_K@Z ; std::set<int,std::less<int>,std::allocator<int> >::__autoclassinit2
PUBLIC	??1?$set@HU?$less@H@std@@V?$allocator@H@2@@std@@QEAA@XZ ; std::set<int,std::less<int>,std::allocator<int> >::~set<int,std::less<int>,std::allocator<int> >
PUBLIC	?dfs@Solution@@QEAAHAEAV?$vector@V?$vector@HV?$allocator@H@std@@@std@@V?$allocator@V?$vector@HV?$allocator@H@std@@@std@@@2@@std@@AEAV?$vector@HV?$allocator@H@std@@@3@HHAEAH@Z ; Solution::dfs
PUBLIC	?combinationSum2@Solution@@QEAA?AV?$vector@V?$vector@HV?$allocator@H@std@@@std@@V?$allocator@V?$vector@HV?$allocator@H@std@@@std@@@2@@std@@AEAV?$vector@HV?$allocator@H@std@@@3@H@Z ; Solution::combinationSum2
PUBLIC	?_Throw_tree_length_error@std@@YAXXZ		; std::_Throw_tree_length_error
PUBLIC	?_Release@_Fake_proxy_ptr_impl@std@@QEAAXXZ	; std::_Fake_proxy_ptr_impl::_Release
PUBLIC	??0_Fake_proxy_ptr_impl@std@@QEAA@AEBU_Fake_allocator@1@AEBU_Container_base0@1@@Z ; std::_Fake_proxy_ptr_impl::_Fake_proxy_ptr_impl
PUBLIC	?_Getcont@_Iterator_base0@std@@QEBAPEBU_Container_base0@2@XZ ; std::_Iterator_base0::_Getcont
PUBLIC	?_Adopt@_Iterator_base0@std@@QEAAXPEBX@Z	; std::_Iterator_base0::_Adopt
PUBLIC	?_Alloc_proxy@_Container_base0@std@@QEAAXAEBU_Fake_allocator@2@@Z ; std::_Container_base0::_Alloc_proxy
PUBLIC	?_Swap_proxy_and_iterators@_Container_base0@std@@QEAAXAEAU12@@Z ; std::_Container_base0::_Swap_proxy_and_iterators
PUBLIC	?_Orphan_all@_Container_base0@std@@QEAAXXZ	; std::_Container_base0::_Orphan_all
PUBLIC	?_Adjust_manually_vector_aligned@std@@YAXAEAPEAXAEA_K@Z ; std::_Adjust_manually_vector_aligned
PUBLIC	?_Allocate@_Default_allocate_traits@std@@SAPEAX_K@Z ; std::_Default_allocate_traits::_Allocate
PUBLIC	?max@?$numeric_limits@_J@std@@SA_JXZ		; std::numeric_limits<__int64>::max
PUBLIC	??0bad_alloc@std@@QEAA@AEBV01@@Z		; std::bad_alloc::bad_alloc
PUBLIC	??0bad_array_new_length@std@@QEAA@AEBV01@@Z	; std::bad_array_new_length::bad_array_new_length
PUBLIC	?_Throw_bad_array_new_length@std@@YAXXZ		; std::_Throw_bad_array_new_length
PUBLIC	??1bad_array_new_length@std@@UEAA@XZ		; std::bad_array_new_length::~bad_array_new_length
PUBLIC	??_Gbad_array_new_length@std@@UEAAPEAXI@Z	; std::bad_array_new_length::`scalar deleting destructor'
PUBLIC	??0bad_array_new_length@std@@QEAA@XZ		; std::bad_array_new_length::bad_array_new_length
PUBLIC	??1bad_alloc@std@@UEAA@XZ			; std::bad_alloc::~bad_alloc
PUBLIC	??_Gbad_alloc@std@@UEAAPEAXI@Z			; std::bad_alloc::`scalar deleting destructor'
PUBLIC	??0bad_alloc@std@@AEAA@QEBD@Z			; std::bad_alloc::bad_alloc
PUBLIC	??_Gexception@std@@UEAAPEAXI@Z			; std::exception::`scalar deleting destructor'
PUBLIC	?what@exception@std@@UEBAPEBDXZ			; std::exception::what
PUBLIC	??1exception@std@@UEAA@XZ			; std::exception::~exception
PUBLIC	??0exception@std@@QEAA@AEBV01@@Z		; std::exception::exception
PUBLIC	??0exception@std@@QEAA@QEBDH@Z			; std::exception::exception
PUBLIC	??2@YAPEAX_KPEAX@Z				; operator new
PUBLIC	__xmm@00000001000000010000000100000001
PUBLIC	__xmm@00000001000000020000000200000004
PUBLIC	__xmm@00000001000000020000000400000004
PUBLIC	__xmm@00000001000000050000000400000005
PUBLIC	__xmm@00000004000000010000000300000005
EXTRN	__std_terminate:PROC
EXTRN	??_Eexception@std@@UEAAPEAXI@Z:PROC		; std::exception::`vector deleting destructor'
EXTRN	??_Ebad_alloc@std@@UEAAPEAXI@Z:PROC		; std::bad_alloc::`vector deleting destructor'
EXTRN	??_Ebad_array_new_length@std@@UEAAPEAXI@Z:PROC	; std::bad_array_new_length::`vector deleting destructor'
EXTRN	_CxxThrowException:PROC
EXTRN	__CxxFrameHandler4:PROC
EXTRN	__GSHandlerCheck:PROC
EXTRN	__GSHandlerCheck_EH4:PROC
EXTRN	memcmp:PROC
EXTRN	memmove:PROC
EXTRN	memset:PROC
EXTRN	__security_cookie:QWORD
;	COMDAT pdata
pdata	SEGMENT
$pdata$??$construct@V?$vector@HV?$allocator@H@std@@@std@@AEAV12@@?$_Default_allocator_traits@V?$allocator@U?$_Tree_node@V?$vector@HV?$allocator@H@std@@@std@@PEAX@std@@@std@@@std@@SAXAEAV?$allocator@U?$_Tree_node@V?$vector@HV?$allocator@H@std@@@std@@PEAX@std@@@1@QEAV?$vector@HV?$allocator@H@std@@@1@AEAV31@@Z DD imagerel $LN65
	DD	imagerel $LN65+63
	DD	imagerel $unwind$??$construct@V?$vector@HV?$allocator@H@std@@@std@@AEAV12@@?$_Default_allocator_traits@V?$allocator@U?$_Tree_node@V?$vector@HV?$allocator@H@std@@@std@@PEAX@std@@@std@@@std@@SAXAEAV?$allocator@U?$_Tree_node@V?$vector@HV?$allocator@H@std@@@std@@PEAX@std@@@1@QEAV?$vector@HV?$allocator@H@std@@@1@AEAV31@@Z
pdata	ENDS
;	COMDAT pdata
pdata	SEGMENT
$pdata$0$??$construct@V?$vector@HV?$allocator@H@std@@@std@@AEAV12@@?$_Default_allocator_traits@V?$allocator@U?$_Tree_node@V?$vector@HV?$allocator@H@std@@@std@@PEAX@std@@@std@@@std@@SAXAEAV?$allocator@U?$_Tree_node@V?$vector@HV?$allocator@H@std@@@std@@PEAX@std@@@1@QEAV?$vector@HV?$allocator@H@std@@@1@AEAV31@@Z DD imagerel $LN65+63
	DD	imagerel $LN65+114
	DD	imagerel $chain$0$??$construct@V?$vector@HV?$allocator@H@std@@@std@@AEAV12@@?$_Default_allocator_traits@V?$allocator@U?$_Tree_node@V?$vector@HV?$allocator@H@std@@@std@@PEAX@std@@@std@@@std@@SAXAEAV?$allocator@U?$_Tree_node@V?$vector@HV?$allocator@H@std@@@std@@PEAX@std@@@1@QEAV?$vector@HV?$allocator@H@std@@@1@AEAV31@@Z
pdata	ENDS
;	COMDAT pdata
pdata	SEGMENT
$pdata$1$??$construct@V?$vector@HV?$allocator@H@std@@@std@@AEAV12@@?$_Default_allocator_traits@V?$allocator@U?$_Tree_node@V?$vector@HV?$allocator@H@std@@@std@@PEAX@std@@@std@@@std@@SAXAEAV?$allocator@U?$_Tree_node@V?$vector@HV?$allocator@H@std@@@std@@PEAX@std@@@1@QEAV?$vector@HV?$allocator@H@std@@@1@AEAV31@@Z DD imagerel $LN65+114
	DD	imagerel $LN65+131
	DD	imagerel $chain$1$??$construct@V?$vector@HV?$allocator@H@std@@@std@@AEAV12@@?$_Default_allocator_traits@V?$allocator@U?$_Tree_node@V?$vector@HV?$allocator@H@std@@@std@@PEAX@std@@@std@@@std@@SAXAEAV?$allocator@U?$_Tree_node@V?$vector@HV?$allocator@H@std@@@std@@PEAX@std@@@1@QEAV?$vector@HV?$allocator@H@std@@@1@AEAV31@@Z
pdata	ENDS
;	COMDAT pdata
pdata	SEGMENT
$pdata$??$_Find_lower_bound@V?$vector@HV?$allocator@H@std@@@std@@@?$_Tree@V?$_Tset_traits@V?$vector@HV?$allocator@H@std@@@std@@U?$less@V?$vector@HV?$allocator@H@std@@@std@@@2@V?$allocator@V?$vector@HV?$allocator@H@std@@@std@@@2@$0A@@std@@@std@@IEBA?AU?$_Tree_find_result@PEAU?$_Tree_node@V?$vector@HV?$allocator@H@std@@@std@@PEAX@std@@@1@AEBV?$vector@HV?$allocator@H@std@@@1@@Z DD imagerel $LN47
	DD	imagerel $LN47+37
	DD	imagerel $unwind$??$_Find_lower_bound@V?$vector@HV?$allocator@H@std@@@std@@@?$_Tree@V?$_Tset_traits@V?$vector@HV?$allocator@H@std@@@std@@U?$less@V?$vector@HV?$allocator@H@std@@@std@@@2@V?$allocator@V?$vector@HV?$allocator@H@std@@@std@@@2@$0A@@std@@@std@@IEBA?AU?$_Tree_find_result@PEAU?$_Tree_node@V?$vector@HV?$allocator@H@std@@@std@@PEAX@std@@@1@AEBV?$vector@HV?$allocator@H@std@@@1@@Z
pdata	ENDS
;	COMDAT pdata
pdata	SEGMENT
$pdata$0$??$_Find_lower_bound@V?$vector@HV?$allocator@H@std@@@std@@@?$_Tree@V?$_Tset_traits@V?$vector@HV?$allocator@H@std@@@std@@U?$less@V?$vector@HV?$allocator@H@std@@@std@@@2@V?$allocator@V?$vector@HV?$allocator@H@std@@@std@@@2@$0A@@std@@@std@@IEBA?AU?$_Tree_find_result@PEAU?$_Tree_node@V?$vector@HV?$allocator@H@std@@@std@@PEAX@std@@@1@AEBV?$vector@HV?$allocator@H@std@@@1@@Z DD imagerel $LN47+37
	DD	imagerel $LN47+138
	DD	imagerel $chain$0$??$_Find_lower_bound@V?$vector@HV?$allocator@H@std@@@std@@@?$_Tree@V?$_Tset_traits@V?$vector@HV?$allocator@H@std@@@std@@U?$less@V?$vector@HV?$allocator@H@std@@@std@@@2@V?$allocator@V?$vector@HV?$allocator@H@std@@@std@@@2@$0A@@std@@@std@@IEBA?AU?$_Tree_find_result@PEAU?$_Tree_node@V?$vector@HV?$allocator@H@std@@@std@@PEAX@std@@@1@AEBV?$vector@HV?$allocator@H@std@@@1@@Z
pdata	ENDS
;	COMDAT pdata
pdata	SEGMENT
$pdata$1$??$_Find_lower_bound@V?$vector@HV?$allocator@H@std@@@std@@@?$_Tree@V?$_Tset_traits@V?$vector@HV?$allocator@H@std@@@std@@U?$less@V?$vector@HV?$allocator@H@std@@@std@@@2@V?$allocator@V?$vector@HV?$allocator@H@std@@@std@@@2@$0A@@std@@@std@@IEBA?AU?$_Tree_find_result@PEAU?$_Tree_node@V?$vector@HV?$allocator@H@std@@@std@@PEAX@std@@@1@AEBV?$vector@HV?$allocator@H@std@@@1@@Z DD imagerel $LN47+138
	DD	imagerel $LN47+148
	DD	imagerel $chain$1$??$_Find_lower_bound@V?$vector@HV?$allocator@H@std@@@std@@@?$_Tree@V?$_Tset_traits@V?$vector@HV?$allocator@H@std@@@std@@U?$less@V?$vector@HV?$allocator@H@std@@@std@@@2@V?$allocator@V?$vector@HV?$allocator@H@std@@@std@@@2@$0A@@std@@@std@@IEBA?AU?$_Tree_find_result@PEAU?$_Tree_node@V?$vector@HV?$allocator@H@std@@@std@@PEAX@std@@@1@AEBV?$vector@HV?$allocator@H@std@@@1@@Z
pdata	ENDS
;	COMDAT pdata
pdata	SEGMENT
$pdata$?_Allocate@?$_Alloc_construct_ptr@V?$allocator@U?$_Tree_node@HPEAX@std@@@std@@@std@@QEAAXXZ DD imagerel $LN28
	DD	imagerel $LN28+37
	DD	imagerel $unwind$?_Allocate@?$_Alloc_construct_ptr@V?$allocator@U?$_Tree_node@HPEAX@std@@@std@@@std@@QEAAXXZ
pdata	ENDS
;	COMDAT pdata
pdata	SEGMENT
$pdata$?_Allocate@?$_Alloc_construct_ptr@V?$allocator@U?$_Tree_node@V?$vector@HV?$allocator@H@std@@@std@@PEAX@std@@@std@@@std@@QEAAXXZ DD imagerel $LN28
	DD	imagerel $LN28+37
	DD	imagerel $unwind$?_Allocate@?$_Alloc_construct_ptr@V?$allocator@U?$_Tree_node@V?$vector@HV?$allocator@H@std@@@std@@PEAX@std@@@std@@@std@@QEAAXXZ
pdata	ENDS
;	COMDAT pdata
pdata	SEGMENT
$pdata$??0?$_Tree_temp_node_alloc@V?$allocator@U?$_Tree_node@HPEAX@std@@@std@@@std@@QEAA@AEAV?$allocator@U?$_Tree_node@HPEAX@std@@@1@@Z DD imagerel $LN35
	DD	imagerel $LN35+43
	DD	imagerel $unwind$??0?$_Tree_temp_node_alloc@V?$allocator@U?$_Tree_node@HPEAX@std@@@std@@@std@@QEAA@AEAV?$allocator@U?$_Tree_node@HPEAX@std@@@1@@Z
pdata	ENDS
;	COMDAT pdata
pdata	SEGMENT
$pdata$??0?$_Tree_temp_node_alloc@V?$allocator@U?$_Tree_node@V?$vector@HV?$allocator@H@std@@@std@@PEAX@std@@@std@@@std@@QEAA@AEAV?$allocator@U?$_Tree_node@V?$vector@HV?$allocator@H@std@@@std@@PEAX@std@@@1@@Z DD imagerel $LN35
	DD	imagerel $LN35+43
	DD	imagerel $unwind$??0?$_Tree_temp_node_alloc@V?$allocator@U?$_Tree_node@V?$vector@HV?$allocator@H@std@@@std@@PEAX@std@@@std@@@std@@QEAA@AEAV?$allocator@U?$_Tree_node@V?$vector@HV?$allocator@H@std@@@std@@PEAX@std@@@1@@Z
pdata	ENDS
;	COMDAT pdata
pdata	SEGMENT
$pdata$??$equal@PEBHPEBHU?$equal_to@X@std@@@std@@YA_NQEBH00U?$equal_to@X@0@@Z DD imagerel $LN15
	DD	imagerel $LN15+31
	DD	imagerel $unwind$??$equal@PEBHPEBHU?$equal_to@X@std@@@std@@YA_NQEBH00U?$equal_to@X@0@@Z
pdata	ENDS
;	COMDAT pdata
pdata	SEGMENT
$pdata$??$construct@V?$vector@HV?$allocator@H@std@@@std@@AEBV12@@?$_Default_allocator_traits@V?$allocator@V?$vector@HV?$allocator@H@std@@@std@@@std@@@std@@SAXAEAV?$allocator@V?$vector@HV?$allocator@H@std@@@std@@@1@QEAV?$vector@HV?$allocator@H@std@@@1@AEBV31@@Z DD imagerel $LN65
	DD	imagerel $LN65+63
	DD	imagerel $unwind$??$construct@V?$vector@HV?$allocator@H@std@@@std@@AEBV12@@?$_Default_allocator_traits@V?$allocator@V?$vector@HV?$allocator@H@std@@@std@@@std@@@std@@SAXAEAV?$allocator@V?$vector@HV?$allocator@H@std@@@std@@@1@QEAV?$vector@HV?$allocator@H@std@@@1@AEBV31@@Z
pdata	ENDS
;	COMDAT pdata
pdata	SEGMENT
$pdata$0$??$construct@V?$vector@HV?$allocator@H@std@@@std@@AEBV12@@?$_Default_allocator_traits@V?$allocator@V?$vector@HV?$allocator@H@std@@@std@@@std@@@std@@SAXAEAV?$allocator@V?$vector@HV?$allocator@H@std@@@std@@@1@QEAV?$vector@HV?$allocator@H@std@@@1@AEBV31@@Z DD imagerel $LN65+63
	DD	imagerel $LN65+114
	DD	imagerel $chain$0$??$construct@V?$vector@HV?$allocator@H@std@@@std@@AEBV12@@?$_Default_allocator_traits@V?$allocator@V?$vector@HV?$allocator@H@std@@@std@@@std@@@std@@SAXAEAV?$allocator@V?$vector@HV?$allocator@H@std@@@std@@@1@QEAV?$vector@HV?$allocator@H@std@@@1@AEBV31@@Z
pdata	ENDS
;	COMDAT pdata
pdata	SEGMENT
$pdata$1$??$construct@V?$vector@HV?$allocator@H@std@@@std@@AEBV12@@?$_Default_allocator_traits@V?$allocator@V?$vector@HV?$allocator@H@std@@@std@@@std@@@std@@SAXAEAV?$allocator@V?$vector@HV?$allocator@H@std@@@std@@@1@QEAV?$vector@HV?$allocator@H@std@@@1@AEBV31@@Z DD imagerel $LN65+114
	DD	imagerel $LN65+131
	DD	imagerel $chain$1$??$construct@V?$vector@HV?$allocator@H@std@@@std@@AEBV12@@?$_Default_allocator_traits@V?$allocator@V?$vector@HV?$allocator@H@std@@@std@@@std@@@std@@SAXAEAV?$allocator@V?$vector@HV?$allocator@H@std@@@std@@@1@QEAV?$vector@HV?$allocator@H@std@@@1@AEBV31@@Z
pdata	ENDS
;	COMDAT pdata
pdata	SEGMENT
$pdata$??$?0AEAV?$vector@HV?$allocator@H@std@@@std@@@?$_Tree_temp_node@V?$allocator@U?$_Tree_node@V?$vector@HV?$allocator@H@std@@@std@@PEAX@std@@@std@@@std@@QEAA@AEAV?$allocator@U?$_Tree_node@V?$vector@HV?$allocator@H@std@@@std@@PEAX@std@@@1@PEAU?$_Tree_node@V?$vector@HV?$allocator@H@std@@@std@@PEAX@1@AEAV?$vector@HV?$allocator@H@std@@@1@@Z DD imagerel $LN47
	DD	imagerel $LN47+120
	DD	imagerel $unwind$??$?0AEAV?$vector@HV?$allocator@H@std@@@std@@@?$_Tree_temp_node@V?$allocator@U?$_Tree_node@V?$vector@HV?$allocator@H@std@@@std@@PEAX@std@@@std@@@std@@QEAA@AEAV?$allocator@U?$_Tree_node@V?$vector@HV?$allocator@H@std@@@std@@PEAX@std@@@1@PEAU?$_Tree_node@V?$vector@HV?$allocator@H@std@@@std@@PEAX@1@AEAV?$vector@HV?$allocator@H@std@@@1@@Z
pdata	ENDS
;	COMDAT pdata
pdata	SEGMENT
$pdata$??$_Find_hint@V?$vector@HV?$allocator@H@std@@@std@@@?$_Tree@V?$_Tset_traits@V?$vector@HV?$allocator@H@std@@@std@@U?$less@V?$vector@HV?$allocator@H@std@@@std@@@2@V?$allocator@V?$vector@HV?$allocator@H@std@@@std@@@2@$0A@@std@@@std@@IEBA?AU?$_Tree_find_hint_result@PEAU?$_Tree_node@V?$vector@HV?$allocator@H@std@@@std@@PEAX@std@@@1@QEAU?$_Tree_node@V?$vector@HV?$allocator@H@std@@@std@@PEAX@1@AEBV?$vector@HV?$allocator@H@std@@@1@@Z DD imagerel $LN359
	DD	imagerel $LN359+1020
	DD	imagerel $unwind$??$_Find_hint@V?$vector@HV?$allocator@H@std@@@std@@@?$_Tree@V?$_Tset_traits@V?$vector@HV?$allocator@H@std@@@std@@U?$less@V?$vector@HV?$allocator@H@std@@@std@@@2@V?$allocator@V?$vector@HV?$allocator@H@std@@@std@@@2@$0A@@std@@@std@@IEBA?AU?$_Tree_find_hint_result@PEAU?$_Tree_node@V?$vector@HV?$allocator@H@std@@@std@@PEAX@std@@@1@QEAU?$_Tree_node@V?$vector@HV?$allocator@H@std@@@std@@PEAX@1@AEBV?$vector@HV?$allocator@H@std@@@1@@Z
pdata	ENDS
;	COMDAT pdata
pdata	SEGMENT
$pdata$??$?0AEAH@?$_Tree_temp_node@V?$allocator@U?$_Tree_node@HPEAX@std@@@std@@@std@@QEAA@AEAV?$allocator@U?$_Tree_node@HPEAX@std@@@1@PEAU?$_Tree_node@HPEAX@1@AEAH@Z DD imagerel $LN45
	DD	imagerel $LN45+113
	DD	imagerel $unwind$??$?0AEAH@?$_Tree_temp_node@V?$allocator@U?$_Tree_node@HPEAX@std@@@std@@@std@@QEAA@AEAV?$allocator@U?$_Tree_node@HPEAX@std@@@1@PEAU?$_Tree_node@HPEAX@1@AEAH@Z
pdata	ENDS
;	COMDAT pdata
pdata	SEGMENT
$pdata$??$_Find_hint@H@?$_Tree@V?$_Tset_traits@HU?$less@H@std@@V?$allocator@H@2@$0A@@std@@@std@@IEBA?AU?$_Tree_find_hint_result@PEAU?$_Tree_node@HPEAX@std@@@1@QEAU?$_Tree_node@HPEAX@1@AEBH@Z DD imagerel $LN129
	DD	imagerel $LN129+165
	DD	imagerel $unwind$??$_Find_hint@H@?$_Tree@V?$_Tset_traits@HU?$less@H@std@@V?$allocator@H@2@$0A@@std@@@std@@IEBA?AU?$_Tree_find_hint_result@PEAU?$_Tree_node@HPEAX@std@@@1@QEAU?$_Tree_node@HPEAX@1@AEBH@Z
pdata	ENDS
;	COMDAT pdata
pdata	SEGMENT
$pdata$2$??$_Find_hint@H@?$_Tree@V?$_Tset_traits@HU?$less@H@std@@V?$allocator@H@2@$0A@@std@@@std@@IEBA?AU?$_Tree_find_hint_result@PEAU?$_Tree_node@HPEAX@std@@@1@QEAU?$_Tree_node@HPEAX@1@AEBH@Z DD imagerel $LN129+165
	DD	imagerel $LN129+247
	DD	imagerel $chain$2$??$_Find_hint@H@?$_Tree@V?$_Tset_traits@HU?$less@H@std@@V?$allocator@H@2@$0A@@std@@@std@@IEBA?AU?$_Tree_find_hint_result@PEAU?$_Tree_node@HPEAX@std@@@1@QEAU?$_Tree_node@HPEAX@1@AEBH@Z
pdata	ENDS
;	COMDAT pdata
pdata	SEGMENT
$pdata$3$??$_Find_hint@H@?$_Tree@V?$_Tset_traits@HU?$less@H@std@@V?$allocator@H@2@$0A@@std@@@std@@IEBA?AU?$_Tree_find_hint_result@PEAU?$_Tree_node@HPEAX@std@@@1@QEAU?$_Tree_node@HPEAX@1@AEBH@Z DD imagerel $LN129+247
	DD	imagerel $LN129+652
	DD	imagerel $chain$3$??$_Find_hint@H@?$_Tree@V?$_Tset_traits@HU?$less@H@std@@V?$allocator@H@2@$0A@@std@@@std@@IEBA?AU?$_Tree_find_hint_result@PEAU?$_Tree_node@HPEAX@std@@@1@QEAU?$_Tree_node@HPEAX@1@AEBH@Z
pdata	ENDS
;	COMDAT pdata
pdata	SEGMENT
$pdata$?_Check_grow_by_1@?$_Tree@V?$_Tset_traits@HU?$less@H@std@@V?$allocator@H@2@$0A@@std@@@std@@IEAAXXZ DD imagerel $LN7
	DD	imagerel $LN7+31
	DD	imagerel $unwind$?_Check_grow_by_1@?$_Tree@V?$_Tset_traits@HU?$less@H@std@@V?$allocator@H@2@$0A@@std@@@std@@IEAAXXZ
pdata	ENDS
;	COMDAT pdata
pdata	SEGMENT
$pdata$?_Check_grow_by_1@?$_Tree@V?$_Tset_traits@V?$vector@HV?$allocator@H@std@@@std@@U?$less@V?$vector@HV?$allocator@H@std@@@std@@@2@V?$allocator@V?$vector@HV?$allocator@H@std@@@std@@@2@$0A@@std@@@std@@IEAAXXZ DD imagerel $LN7
	DD	imagerel $LN7+31
	DD	imagerel $unwind$?_Check_grow_by_1@?$_Tree@V?$_Tset_traits@V?$vector@HV?$allocator@H@std@@@std@@U?$less@V?$vector@HV?$allocator@H@std@@@std@@@2@V?$allocator@V?$vector@HV?$allocator@H@std@@@std@@@2@$0A@@std@@@std@@IEAAXXZ
pdata	ENDS
;	COMDAT pdata
pdata	SEGMENT
$pdata$??1?$_Tree_temp_node@V?$allocator@U?$_Tree_node@V?$vector@HV?$allocator@H@std@@@std@@PEAX@std@@@std@@@std@@QEAA@XZ DD imagerel $LN69
	DD	imagerel $LN69+131
	DD	imagerel $unwind$??1?$_Tree_temp_node@V?$allocator@U?$_Tree_node@V?$vector@HV?$allocator@H@std@@@std@@PEAX@std@@@std@@@std@@QEAA@XZ
pdata	ENDS
;	COMDAT pdata
pdata	SEGMENT
$pdata$??$_Copy_n_unchecked4@PEAH_KPEAH@std@@YAPEAHPEAH_K0@Z DD imagerel $LN11
	DD	imagerel $LN11+50
	DD	imagerel $unwind$??$_Copy_n_unchecked4@PEAH_KPEAH@std@@YAPEAHPEAH_K0@Z
pdata	ENDS
;	COMDAT pdata
pdata	SEGMENT
$pdata$??$_Copy_memmove_n@PEAHPEAH@std@@YAPEAHPEAH_K0@Z DD imagerel $LN6
	DD	imagerel $LN6+50
	DD	imagerel $unwind$??$_Copy_memmove_n@PEAHPEAH@std@@YAPEAHPEAH_K0@Z
pdata	ENDS
;	COMDAT pdata
pdata	SEGMENT
$pdata$??$_Uninitialized_copy_n@PEAHV?$allocator@H@std@@@std@@YAPEAHPEAH_K0AEAV?$allocator@H@0@@Z DD imagerel $LN20
	DD	imagerel $LN20+50
	DD	imagerel $unwind$??$_Uninitialized_copy_n@PEAHV?$allocator@H@std@@@std@@YAPEAHPEAH_K0AEAV?$allocator@H@0@@Z
pdata	ENDS
;	COMDAT pdata
pdata	SEGMENT
$pdata$??$destroy@V?$vector@HV?$allocator@H@std@@@std@@@?$_Default_allocator_traits@V?$allocator@U?$_Tree_node@V?$vector@HV?$allocator@H@std@@@std@@PEAX@std@@@std@@@std@@SAXAEAV?$allocator@U?$_Tree_node@V?$vector@HV?$allocator@H@std@@@std@@PEAX@std@@@1@QEAV?$vector@HV?$allocator@H@std@@@1@@Z DD imagerel $LN38
	DD	imagerel $LN38+92
	DD	imagerel $unwind$??$destroy@V?$vector@HV?$allocator@H@std@@@std@@@?$_Default_allocator_traits@V?$allocator@U?$_Tree_node@V?$vector@HV?$allocator@H@std@@@std@@PEAX@std@@@std@@@std@@SAXAEAV?$allocator@U?$_Tree_node@V?$vector@HV?$allocator@H@std@@@std@@PEAX@std@@@1@QEAV?$vector@HV?$allocator@H@std@@@1@@Z
pdata	ENDS
;	COMDAT pdata
pdata	SEGMENT
$pdata$??$equal@PEBHPEBH@std@@YA_NQEBH00@Z DD imagerel $LN17
	DD	imagerel $LN17+59
	DD	imagerel $unwind$??$equal@PEBHPEBH@std@@YA_NQEBH00@Z
pdata	ENDS
;	COMDAT pdata
pdata	SEGMENT
$pdata$??$_Emplace_back@AEBV?$vector@HV?$allocator@H@std@@@std@@@?$_Uninitialized_backout_al@V?$allocator@V?$vector@HV?$allocator@H@std@@@std@@@std@@@std@@QEAAXAEBV?$vector@HV?$allocator@H@std@@@1@@Z DD imagerel $LN6
	DD	imagerel $LN6+29
	DD	imagerel $unwind$??$_Emplace_back@AEBV?$vector@HV?$allocator@H@std@@@std@@@?$_Uninitialized_backout_al@V?$allocator@V?$vector@HV?$allocator@H@std@@@std@@@std@@@std@@QEAAXAEBV?$vector@HV?$allocator@H@std@@@1@@Z
pdata	ENDS
;	COMDAT pdata
pdata	SEGMENT
$pdata$??$_Emplace_hint@AEAV?$vector@HV?$allocator@H@std@@@std@@@?$_Tree@V?$_Tset_traits@V?$vector@HV?$allocator@H@std@@@std@@U?$less@V?$vector@HV?$allocator@H@std@@@std@@@2@V?$allocator@V?$vector@HV?$allocator@H@std@@@std@@@2@$0A@@std@@@std@@IEAAPEAU?$_Tree_node@V?$vector@HV?$allocator@H@std@@@std@@PEAX@1@QEAU21@AEAV?$vector@HV?$allocator@H@std@@@1@@Z DD imagerel $LN116
	DD	imagerel $LN116+214
	DD	imagerel $unwind$??$_Emplace_hint@AEAV?$vector@HV?$allocator@H@std@@@std@@@?$_Tree@V?$_Tset_traits@V?$vector@HV?$allocator@H@std@@@std@@U?$less@V?$vector@HV?$allocator@H@std@@@std@@@2@V?$allocator@V?$vector@HV?$allocator@H@std@@@std@@@2@$0A@@std@@@std@@IEAAPEAU?$_Tree_node@V?$vector@HV?$allocator@H@std@@@std@@PEAX@1@QEAU21@AEAV?$vector@HV?$allocator@H@std@@@1@@Z
pdata	ENDS
;	COMDAT pdata
pdata	SEGMENT
$pdata$??$_Emplace_hint@AEAH@?$_Tree@V?$_Tset_traits@HU?$less@H@std@@V?$allocator@H@2@$0A@@std@@@std@@IEAAPEAU?$_Tree_node@HPEAX@1@QEAU21@AEAH@Z DD imagerel $LN83
	DD	imagerel $LN83+180
	DD	imagerel $unwind$??$_Emplace_hint@AEAH@?$_Tree@V?$_Tset_traits@HU?$less@H@std@@V?$allocator@H@2@$0A@@std@@@std@@IEAAPEAU?$_Tree_node@HPEAX@1@QEAU21@AEAH@Z
pdata	ENDS
;	COMDAT pdata
pdata	SEGMENT
$pdata$??$_Assign_counted_range@PEAH@?$vector@HV?$allocator@H@std@@@std@@AEAAXPEAH_K@Z DD imagerel $LN68
	DD	imagerel $LN68+75
	DD	imagerel $unwind$??$_Assign_counted_range@PEAH@?$vector@HV?$allocator@H@std@@@std@@AEAAXPEAH_K@Z
pdata	ENDS
;	COMDAT pdata
pdata	SEGMENT
$pdata$0$??$_Assign_counted_range@PEAH@?$vector@HV?$allocator@H@std@@@std@@AEAAXPEAH_K@Z DD imagerel $LN68+75
	DD	imagerel $LN68+160
	DD	imagerel $chain$0$??$_Assign_counted_range@PEAH@?$vector@HV?$allocator@H@std@@@std@@AEAAXPEAH_K@Z
pdata	ENDS
;	COMDAT pdata
pdata	SEGMENT
$pdata$1$??$_Assign_counted_range@PEAH@?$vector@HV?$allocator@H@std@@@std@@AEAAXPEAH_K@Z DD imagerel $LN68+160
	DD	imagerel $LN68+180
	DD	imagerel $chain$1$??$_Assign_counted_range@PEAH@?$vector@HV?$allocator@H@std@@@std@@AEAAXPEAH_K@Z
pdata	ENDS
;	COMDAT pdata
pdata	SEGMENT
$pdata$??$_Get_size_of_n@$0BI@@std@@YA_K_K@Z DD imagerel $LN7
	DD	imagerel $LN7+38
	DD	imagerel $unwind$??$_Get_size_of_n@$0BI@@std@@YA_K_K@Z
pdata	ENDS
;	COMDAT pdata
pdata	SEGMENT
$pdata$??$_Allocate_manually_vector_aligned@U_Default_allocate_traits@std@@@std@@YAPEAX_K@Z DD imagerel $LN17
	DD	imagerel $LN17+59
	DD	imagerel $unwind$??$_Allocate_manually_vector_aligned@U_Default_allocate_traits@std@@@std@@YAPEAX_K@Z
pdata	ENDS
;	COMDAT pdata
pdata	SEGMENT
$pdata$??$_Copy_memmove@PEAHPEAH@std@@YAPEAHPEAH00@Z DD imagerel $LN4
	DD	imagerel $LN4+48
	DD	imagerel $unwind$??$_Copy_memmove@PEAHPEAH@std@@YAPEAHPEAH00@Z
pdata	ENDS
;	COMDAT pdata
pdata	SEGMENT
$pdata$??$_Copy_memmove@PEBHPEAH@std@@YAPEAHPEBH0PEAH@Z DD imagerel $LN4
	DD	imagerel $LN4+48
	DD	imagerel $unwind$??$_Copy_memmove@PEBHPEAH@std@@YAPEAHPEBH0PEAH@Z
pdata	ENDS
;	COMDAT pdata
pdata	SEGMENT
$pdata$??$_Zero_range@PEAH@std@@YAPEAHQEAH0@Z DD imagerel $LN4
	DD	imagerel $LN4+31
	DD	imagerel $unwind$??$_Zero_range@PEAH@std@@YAPEAHQEAH0@Z
pdata	ENDS
;	COMDAT pdata
pdata	SEGMENT
$pdata$??$_Uninitialized_move@PEAHV?$allocator@H@std@@@std@@YAPEAHQEAH0PEAHAEAV?$allocator@H@0@@Z DD imagerel $LN18
	DD	imagerel $LN18+52
	DD	imagerel $unwind$??$_Uninitialized_move@PEAHV?$allocator@H@std@@@std@@YAPEAHQEAH0PEAHAEAV?$allocator@H@0@@Z
pdata	ENDS
;	COMDAT pdata
pdata	SEGMENT
$pdata$??$_Uninitialized_move@PEAV?$vector@HV?$allocator@H@std@@@std@@V?$allocator@V?$vector@HV?$allocator@H@std@@@std@@@2@@std@@YAPEAV?$vector@HV?$allocator@H@std@@@0@QEAV10@0PEAV10@AEAV?$allocator@V?$vector@HV?$allocator@H@std@@@std@@@0@@Z DD imagerel $LN37
	DD	imagerel $LN37+103
	DD	imagerel $unwind$??$_Uninitialized_move@PEAV?$vector@HV?$allocator@H@std@@@std@@V?$allocator@V?$vector@HV?$allocator@H@std@@@std@@@2@@std@@YAPEAV?$vector@HV?$allocator@H@std@@@0@QEAV10@0PEAV10@AEAV?$allocator@V?$vector@HV?$allocator@H@std@@@std@@@0@@Z
pdata	ENDS
;	COMDAT pdata
pdata	SEGMENT
$pdata$??$_Freenode@V?$allocator@U?$_Tree_node@V?$vector@HV?$allocator@H@std@@@std@@PEAX@std@@@std@@@?$_Tree_node@V?$vector@HV?$allocator@H@std@@@std@@PEAX@std@@SAXAEAV?$allocator@U?$_Tree_node@V?$vector@HV?$allocator@H@std@@@std@@PEAX@std@@@1@PEAU01@@Z DD imagerel $LN61
	DD	imagerel $LN61+106
	DD	imagerel $unwind$??$_Freenode@V?$allocator@U?$_Tree_node@V?$vector@HV?$allocator@H@std@@@std@@PEAX@std@@@std@@@?$_Tree_node@V?$vector@HV?$allocator@H@std@@@std@@PEAX@std@@SAXAEAV?$allocator@U?$_Tree_node@V?$vector@HV?$allocator@H@std@@@std@@PEAX@std@@@1@PEAU01@@Z
pdata	ENDS
;	COMDAT pdata
pdata	SEGMENT
$pdata$??$?8HV?$allocator@H@std@@@std@@YA_NAEBV?$vector@HV?$allocator@H@std@@@0@0@Z DD imagerel $LN24
	DD	imagerel $LN24+63
	DD	imagerel $unwind$??$?8HV?$allocator@H@std@@@std@@YA_NAEBV?$vector@HV?$allocator@H@std@@@0@0@Z
pdata	ENDS
;	COMDAT pdata
pdata	SEGMENT
$pdata$??$_Copy_n_unchecked4@V?$_Tree_unchecked_const_iterator@V?$_Tree_val@U?$_Tree_simple_types@V?$vector@HV?$allocator@H@std@@@std@@@std@@@std@@U_Iterator_base0@2@@std@@_KPEAV?$vector@HV?$allocator@H@std@@@2@@std@@YAPEAV?$vector@HV?$allocator@H@std@@@0@V?$_Tree_unchecked_const_iterator@V?$_Tree_val@U?$_Tree_simple_types@V?$vector@HV?$allocator@H@std@@@std@@@std@@@std@@U_Iterator_base0@2@@0@_KPEAV10@@Z DD imagerel $LN40
	DD	imagerel $LN40+152
	DD	imagerel $unwind$??$_Copy_n_unchecked4@V?$_Tree_unchecked_const_iterator@V?$_Tree_val@U?$_Tree_simple_types@V?$vector@HV?$allocator@H@std@@@std@@@std@@@std@@U_Iterator_base0@2@@std@@_KPEAV?$vector@HV?$allocator@H@std@@@2@@std@@YAPEAV?$vector@HV?$allocator@H@std@@@0@V?$_Tree_unchecked_const_iterator@V?$_Tree_val@U?$_Tree_simple_types@V?$vector@HV?$allocator@H@std@@@std@@@std@@@std@@U_Iterator_base0@2@@0@_KPEAV10@@Z
pdata	ENDS
;	COMDAT pdata
pdata	SEGMENT
$pdata$??$_Uninitialized_copy_n@V?$_Tree_unchecked_const_iterator@V?$_Tree_val@U?$_Tree_simple_types@V?$vector@HV?$allocator@H@std@@@std@@@std@@@std@@U_Iterator_base0@2@@std@@V?$allocator@V?$vector@HV?$allocator@H@std@@@std@@@2@@std@@YAPEAV?$vector@HV?$allocator@H@std@@@0@V?$_Tree_unchecked_const_iterator@V?$_Tree_val@U?$_Tree_simple_types@V?$vector@HV?$allocator@H@std@@@std@@@std@@@std@@U_Iterator_base0@2@@0@_KPEAV10@AEAV?$allocator@V?$vector@HV?$allocator@H@std@@@std@@@0@@Z DD imagerel $LN48
	DD	imagerel $LN48+224
	DD	imagerel $unwind$??$_Uninitialized_copy_n@V?$_Tree_unchecked_const_iterator@V?$_Tree_val@U?$_Tree_simple_types@V?$vector@HV?$allocator@H@std@@@std@@@std@@@std@@U_Iterator_base0@2@@std@@V?$allocator@V?$vector@HV?$allocator@H@std@@@std@@@2@@std@@YAPEAV?$vector@HV?$allocator@H@std@@@0@V?$_Tree_unchecked_const_iterator@V?$_Tree_val@U?$_Tree_simple_types@V?$vector@HV?$allocator@H@std@@@std@@@std@@@std@@U_Iterator_base0@2@@0@_KPEAV10@AEAV?$allocator@V?$vector@HV?$allocator@H@std@@@std@@@0@@Z
pdata	ENDS
;	COMDAT pdata
pdata	SEGMENT
$pdata$??$_Insert_range_unchecked@PEAV?$vector@HV?$allocator@H@std@@@std@@PEAV12@@?$_Tree@V?$_Tset_traits@V?$vector@HV?$allocator@H@std@@@std@@U?$less@V?$vector@HV?$allocator@H@std@@@std@@@2@V?$allocator@V?$vector@HV?$allocator@H@std@@@std@@@2@$0A@@std@@@std@@IEAAXPEAV?$vector@HV?$allocator@H@std@@@1@QEAV21@@Z DD imagerel $LN128
	DD	imagerel $LN128+253
	DD	imagerel $unwind$??$_Insert_range_unchecked@PEAV?$vector@HV?$allocator@H@std@@@std@@PEAV12@@?$_Tree@V?$_Tset_traits@V?$vector@HV?$allocator@H@std@@@std@@U?$less@V?$vector@HV?$allocator@H@std@@@std@@@2@V?$allocator@V?$vector@HV?$allocator@H@std@@@std@@@2@$0A@@std@@@std@@IEAAXPEAV?$vector@HV?$allocator@H@std@@@1@QEAV21@@Z
pdata	ENDS
;	COMDAT pdata
pdata	SEGMENT
$pdata$??$_Insert_range_unchecked@PEAHPEAH@?$_Tree@V?$_Tset_traits@HU?$less@H@std@@V?$allocator@H@2@$0A@@std@@@std@@IEAAXPEAHQEAH@Z DD imagerel $LN95
	DD	imagerel $LN95+237
	DD	imagerel $unwind$??$_Insert_range_unchecked@PEAHPEAH@?$_Tree@V?$_Tset_traits@HU?$less@H@std@@V?$allocator@H@2@$0A@@std@@@std@@IEAAXPEAHQEAH@Z
pdata	ENDS
;	COMDAT pdata
pdata	SEGMENT
$pdata$?_Buy_raw@?$vector@V?$vector@HV?$allocator@H@std@@@std@@V?$allocator@V?$vector@HV?$allocator@H@std@@@std@@@2@@std@@AEAAX_K@Z DD imagerel $LN39
	DD	imagerel $LN39+140
	DD	imagerel $unwind$?_Buy_raw@?$vector@V?$vector@HV?$allocator@H@std@@@std@@V?$allocator@V?$vector@HV?$allocator@H@std@@@std@@@2@@std@@AEAAX_K@Z
pdata	ENDS
;	COMDAT pdata
pdata	SEGMENT
$pdata$??4?$vector@HV?$allocator@H@std@@@std@@QEAAAEAV01@AEBV01@@Z DD imagerel $LN77
	DD	imagerel $LN77+18
	DD	imagerel $unwind$??4?$vector@HV?$allocator@H@std@@@std@@QEAAAEAV01@AEBV01@@Z
pdata	ENDS
;	COMDAT pdata
pdata	SEGMENT
$pdata$3$??4?$vector@HV?$allocator@H@std@@@std@@QEAAAEAV01@AEBV01@@Z DD imagerel $LN77+18
	DD	imagerel $LN77+120
	DD	imagerel $chain$3$??4?$vector@HV?$allocator@H@std@@@std@@QEAAAEAV01@AEBV01@@Z
pdata	ENDS
;	COMDAT pdata
pdata	SEGMENT
$pdata$4$??4?$vector@HV?$allocator@H@std@@@std@@QEAAAEAV01@AEBV01@@Z DD imagerel $LN77+120
	DD	imagerel $LN77+209
	DD	imagerel $chain$4$??4?$vector@HV?$allocator@H@std@@@std@@QEAAAEAV01@AEBV01@@Z
pdata	ENDS
;	COMDAT pdata
pdata	SEGMENT
$pdata$5$??4?$vector@HV?$allocator@H@std@@@std@@QEAAAEAV01@AEBV01@@Z DD imagerel $LN77+209
	DD	imagerel $LN77+235
	DD	imagerel $chain$5$??4?$vector@HV?$allocator@H@std@@@std@@QEAAAEAV01@AEBV01@@Z
pdata	ENDS
;	COMDAT pdata
pdata	SEGMENT
$pdata$6$??4?$vector@HV?$allocator@H@std@@@std@@QEAAAEAV01@AEBV01@@Z DD imagerel $LN77+235
	DD	imagerel $LN77+244
	DD	imagerel $chain$6$??4?$vector@HV?$allocator@H@std@@@std@@QEAAAEAV01@AEBV01@@Z
pdata	ENDS
;	COMDAT pdata
pdata	SEGMENT
$pdata$?_Change_array@?$vector@HV?$allocator@H@std@@@std@@AEAAXQEAH_K1@Z DD imagerel $LN28
	DD	imagerel $LN28+136
	DD	imagerel $unwind$?_Change_array@?$vector@HV?$allocator@H@std@@@std@@AEAAXQEAH_K1@Z
pdata	ENDS
;	COMDAT pdata
pdata	SEGMENT
$pdata$?allocate@?$allocator@V?$vector@HV?$allocator@H@std@@@std@@@std@@QEAAPEAV?$vector@HV?$allocator@H@std@@@2@_K@Z DD imagerel $LN31
	DD	imagerel $LN31+116
	DD	imagerel $unwind$?allocate@?$allocator@V?$vector@HV?$allocator@H@std@@@std@@@std@@QEAAPEAV?$vector@HV?$allocator@H@std@@@2@_K@Z
pdata	ENDS
;	COMDAT pdata
pdata	SEGMENT
$pdata$?_Clear_and_reserve_geometric@?$vector@V?$vector@HV?$allocator@H@std@@@std@@V?$allocator@V?$vector@HV?$allocator@H@std@@@std@@@2@@std@@AEAAX_K@Z DD imagerel $LN77
	DD	imagerel $LN77+42
	DD	imagerel $unwind$?_Clear_and_reserve_geometric@?$vector@V?$vector@HV?$allocator@H@std@@@std@@V?$allocator@V?$vector@HV?$allocator@H@std@@@std@@@2@@std@@AEAAX_K@Z
pdata	ENDS
;	COMDAT pdata
pdata	SEGMENT
$pdata$2$?_Clear_and_reserve_geometric@?$vector@V?$vector@HV?$allocator@H@std@@@std@@V?$allocator@V?$vector@HV?$allocator@H@std@@@std@@@2@@std@@AEAAX_K@Z DD imagerel $LN77+42
	DD	imagerel $LN77+348
	DD	imagerel $chain$2$?_Clear_and_reserve_geometric@?$vector@V?$vector@HV?$allocator@H@std@@@std@@V?$allocator@V?$vector@HV?$allocator@H@std@@@std@@@2@@std@@AEAAX_K@Z
pdata	ENDS
;	COMDAT pdata
pdata	SEGMENT
$pdata$3$?_Clear_and_reserve_geometric@?$vector@V?$vector@HV?$allocator@H@std@@@std@@V?$allocator@V?$vector@HV?$allocator@H@std@@@std@@@2@@std@@AEAAX_K@Z DD imagerel $LN77+348
	DD	imagerel $LN77+354
	DD	imagerel $chain$3$?_Clear_and_reserve_geometric@?$vector@V?$vector@HV?$allocator@H@std@@@std@@V?$allocator@V?$vector@HV?$allocator@H@std@@@std@@@2@@std@@AEAAX_K@Z
pdata	ENDS
;	COMDAT pdata
pdata	SEGMENT
$pdata$4$?_Clear_and_reserve_geometric@?$vector@V?$vector@HV?$allocator@H@std@@@std@@V?$allocator@V?$vector@HV?$allocator@H@std@@@std@@@2@@std@@AEAAX_K@Z DD imagerel $LN77+354
	DD	imagerel $LN77+360
	DD	imagerel $chain$4$?_Clear_and_reserve_geometric@?$vector@V?$vector@HV?$allocator@H@std@@@std@@V?$allocator@V?$vector@HV?$allocator@H@std@@@std@@@2@@std@@AEAAX_K@Z
pdata	ENDS
;	COMDAT pdata
pdata	SEGMENT
$pdata$?_Change_array@?$vector@V?$vector@HV?$allocator@H@std@@@std@@V?$allocator@V?$vector@HV?$allocator@H@std@@@std@@@2@@std@@AEAAXQEAV?$vector@HV?$allocator@H@std@@@2@_K1@Z DD imagerel $LN28
	DD	imagerel $LN28+189
	DD	imagerel $unwind$?_Change_array@?$vector@V?$vector@HV?$allocator@H@std@@@std@@V?$allocator@V?$vector@HV?$allocator@H@std@@@std@@@2@@std@@AEAAXQEAV?$vector@HV?$allocator@H@std@@@2@_K1@Z
pdata	ENDS
;	COMDAT pdata
pdata	SEGMENT
$pdata$?_Xlength@?$vector@V?$vector@HV?$allocator@H@std@@@std@@V?$allocator@V?$vector@HV?$allocator@H@std@@@std@@@2@@std@@CAXXZ DD imagerel $LN4
	DD	imagerel $LN4+18
	DD	imagerel $unwind$?_Xlength@?$vector@V?$vector@HV?$allocator@H@std@@@std@@V?$allocator@V?$vector@HV?$allocator@H@std@@@std@@@2@@std@@CAXXZ
pdata	ENDS
;	COMDAT pdata
pdata	SEGMENT
$pdata$??$_Buyheadnode@V?$allocator@U?$_Tree_node@HPEAX@std@@@std@@@?$_Tree_node@HPEAX@std@@SAPEAU01@AEAV?$allocator@U?$_Tree_node@HPEAX@std@@@1@@Z DD imagerel $LN28
	DD	imagerel $LN28+36
	DD	imagerel $unwind$??$_Buyheadnode@V?$allocator@U?$_Tree_node@HPEAX@std@@@std@@@?$_Tree_node@HPEAX@std@@SAPEAU01@AEAV?$allocator@U?$_Tree_node@HPEAX@std@@@1@@Z
pdata	ENDS
;	COMDAT pdata
pdata	SEGMENT
$pdata$??$_Buyheadnode@V?$allocator@U?$_Tree_node@V?$vector@HV?$allocator@H@std@@@std@@PEAX@std@@@std@@@?$_Tree_node@V?$vector@HV?$allocator@H@std@@@std@@PEAX@std@@SAPEAU01@AEAV?$allocator@U?$_Tree_node@V?$vector@HV?$allocator@H@std@@@std@@PEAX@std@@@1@@Z DD imagerel $LN28
	DD	imagerel $LN28+36
	DD	imagerel $unwind$??$_Buyheadnode@V?$allocator@U?$_Tree_node@V?$vector@HV?$allocator@H@std@@@std@@PEAX@std@@@std@@@?$_Tree_node@V?$vector@HV?$allocator@H@std@@@std@@PEAX@std@@SAPEAU01@AEAV?$allocator@U?$_Tree_node@V?$vector@HV?$allocator@H@std@@@std@@PEAX@std@@@1@@Z
pdata	ENDS
;	COMDAT pdata
pdata	SEGMENT
$pdata$??$_Allocate@$0BA@U_Default_allocate_traits@std@@$0A@@std@@YAPEAX_K@Z DD imagerel $LN24
	DD	imagerel $LN24+89
	DD	imagerel $unwind$??$_Allocate@$0BA@U_Default_allocate_traits@std@@$0A@@std@@YAPEAX_K@Z
pdata	ENDS
;	COMDAT pdata
pdata	SEGMENT
$pdata$??$_Get_size_of_n@$03@std@@YA_K_K@Z DD imagerel $LN7
	DD	imagerel $LN7+38
	DD	imagerel $unwind$??$_Get_size_of_n@$03@std@@YA_K_K@Z
pdata	ENDS
;	COMDAT pdata
pdata	SEGMENT
$pdata$??$_Uninitialized_fill_n@V?$allocator@H@std@@@std@@YAPEAHPEAH_KAEBHAEAV?$allocator@H@0@@Z DD imagerel $LN29
	DD	imagerel $LN29+79
	DD	imagerel $unwind$??$_Uninitialized_fill_n@V?$allocator@H@std@@@std@@YAPEAHPEAH_KAEBHAEAV?$allocator@H@0@@Z
pdata	ENDS
;	COMDAT pdata
pdata	SEGMENT
$pdata$??$_Uninitialized_copy@PEAHPEAHV?$allocator@H@std@@@std@@YAPEAHPEAH00AEAV?$allocator@H@0@@Z DD imagerel $LN18
	DD	imagerel $LN18+52
	DD	imagerel $unwind$??$_Uninitialized_copy@PEAHPEAHV?$allocator@H@std@@@std@@YAPEAHPEAH00AEAV?$allocator@H@0@@Z
pdata	ENDS
;	COMDAT pdata
pdata	SEGMENT
$pdata$??$_Emplace_reallocate@AEBH@?$vector@HV?$allocator@H@std@@@std@@AEAAPEAHQEAHAEBH@Z DD imagerel $LN133
	DD	imagerel $LN133+70
	DD	imagerel $unwind$??$_Emplace_reallocate@AEBH@?$vector@HV?$allocator@H@std@@@std@@AEAAPEAHQEAHAEBH@Z
pdata	ENDS
;	COMDAT pdata
pdata	SEGMENT
$pdata$2$??$_Emplace_reallocate@AEBH@?$vector@HV?$allocator@H@std@@@std@@AEAAPEAHQEAHAEBH@Z DD imagerel $LN133+70
	DD	imagerel $LN133+381
	DD	imagerel $chain$2$??$_Emplace_reallocate@AEBH@?$vector@HV?$allocator@H@std@@@std@@AEAAPEAHQEAHAEBH@Z
pdata	ENDS
;	COMDAT pdata
pdata	SEGMENT
$pdata$4$??$_Emplace_reallocate@AEBH@?$vector@HV?$allocator@H@std@@@std@@AEAAPEAHQEAHAEBH@Z DD imagerel $LN133+381
	DD	imagerel $LN133+388
	DD	imagerel $chain$4$??$_Emplace_reallocate@AEBH@?$vector@HV?$allocator@H@std@@@std@@AEAAPEAHQEAHAEBH@Z
pdata	ENDS
;	COMDAT pdata
pdata	SEGMENT
$pdata$5$??$_Emplace_reallocate@AEBH@?$vector@HV?$allocator@H@std@@@std@@AEAAPEAHQEAHAEBH@Z DD imagerel $LN133+388
	DD	imagerel $LN133+394
	DD	imagerel $chain$5$??$_Emplace_reallocate@AEBH@?$vector@HV?$allocator@H@std@@@std@@AEAAPEAHQEAHAEBH@Z
pdata	ENDS
;	COMDAT pdata
pdata	SEGMENT
$pdata$6$??$_Emplace_reallocate@AEBH@?$vector@HV?$allocator@H@std@@@std@@AEAAPEAHQEAHAEBH@Z DD imagerel $LN133+394
	DD	imagerel $LN133+400
	DD	imagerel $chain$6$??$_Emplace_reallocate@AEBH@?$vector@HV?$allocator@H@std@@@std@@AEAAPEAHQEAHAEBH@Z
pdata	ENDS
;	COMDAT pdata
pdata	SEGMENT
$pdata$??$_Copy_n_unchecked4@PEBH_KPEAH@std@@YAPEAHPEBH_KPEAH@Z DD imagerel $LN11
	DD	imagerel $LN11+50
	DD	imagerel $unwind$??$_Copy_n_unchecked4@PEBH_KPEAH@std@@YAPEAHPEBH_KPEAH@Z
pdata	ENDS
;	COMDAT pdata
pdata	SEGMENT
$pdata$??$_Copy_memmove_n@PEBHPEAH@std@@YAPEAHPEBH_KPEAH@Z DD imagerel $LN6
	DD	imagerel $LN6+50
	DD	imagerel $unwind$??$_Copy_memmove_n@PEBHPEAH@std@@YAPEAHPEBH_KPEAH@Z
pdata	ENDS
;	COMDAT pdata
pdata	SEGMENT
$pdata$??$_Uninitialized_copy_n@PEBHV?$allocator@H@std@@@std@@YAPEAHPEBH_KPEAHAEAV?$allocator@H@0@@Z DD imagerel $LN20
	DD	imagerel $LN20+50
	DD	imagerel $unwind$??$_Uninitialized_copy_n@PEBHV?$allocator@H@std@@@std@@YAPEAHPEBH_KPEAHAEAV?$allocator@H@0@@Z
pdata	ENDS
;	COMDAT pdata
pdata	SEGMENT
$pdata$??$_Uninitialized_value_construct_n@V?$allocator@H@std@@@std@@YAPEAHPEAH_KAEAV?$allocator@H@0@@Z DD imagerel $LN20
	DD	imagerel $LN20+46
	DD	imagerel $unwind$??$_Uninitialized_value_construct_n@V?$allocator@H@std@@@std@@YAPEAHPEAH_KAEAV?$allocator@H@0@@Z
pdata	ENDS
;	COMDAT pdata
pdata	SEGMENT
$pdata$??$_Resize_reallocate@U_Value_init_tag@std@@@?$vector@HV?$allocator@H@std@@@std@@AEAAX_KAEBU_Value_init_tag@1@@Z DD imagerel $LN111
	DD	imagerel $LN111+347
	DD	imagerel $unwind$??$_Resize_reallocate@U_Value_init_tag@std@@@?$vector@HV?$allocator@H@std@@@std@@AEAAX_KAEBU_Value_init_tag@1@@Z
pdata	ENDS
;	COMDAT pdata
pdata	SEGMENT
$pdata$??$_Emplace_reallocate@V?$vector@HV?$allocator@H@std@@@std@@@?$vector@V?$vector@HV?$allocator@H@std@@@std@@V?$allocator@V?$vector@HV?$allocator@H@std@@@std@@@2@@std@@AEAAPEAV?$vector@HV?$allocator@H@std@@@1@QEAV21@$$QEAV21@@Z DD imagerel $LN204
	DD	imagerel $LN204+118
	DD	imagerel $unwind$??$_Emplace_reallocate@V?$vector@HV?$allocator@H@std@@@std@@@?$vector@V?$vector@HV?$allocator@H@std@@@std@@V?$allocator@V?$vector@HV?$allocator@H@std@@@std@@@2@@std@@AEAAPEAV?$vector@HV?$allocator@H@std@@@1@QEAV21@$$QEAV21@@Z
pdata	ENDS
;	COMDAT pdata
pdata	SEGMENT
$pdata$3$??$_Emplace_reallocate@V?$vector@HV?$allocator@H@std@@@std@@@?$vector@V?$vector@HV?$allocator@H@std@@@std@@V?$allocator@V?$vector@HV?$allocator@H@std@@@std@@@2@@std@@AEAAPEAV?$vector@HV?$allocator@H@std@@@1@QEAV21@$$QEAV21@@Z DD imagerel $LN204+118
	DD	imagerel $LN204+753
	DD	imagerel $chain$3$??$_Emplace_reallocate@V?$vector@HV?$allocator@H@std@@@std@@@?$vector@V?$vector@HV?$allocator@H@std@@@std@@V?$allocator@V?$vector@HV?$allocator@H@std@@@std@@@2@@std@@AEAAPEAV?$vector@HV?$allocator@H@std@@@1@QEAV21@$$QEAV21@@Z
pdata	ENDS
;	COMDAT pdata
pdata	SEGMENT
$pdata$5$??$_Emplace_reallocate@V?$vector@HV?$allocator@H@std@@@std@@@?$vector@V?$vector@HV?$allocator@H@std@@@std@@V?$allocator@V?$vector@HV?$allocator@H@std@@@std@@@2@@std@@AEAAPEAV?$vector@HV?$allocator@H@std@@@1@QEAV21@$$QEAV21@@Z DD imagerel $LN204+753
	DD	imagerel $LN204+760
	DD	imagerel $chain$5$??$_Emplace_reallocate@V?$vector@HV?$allocator@H@std@@@std@@@?$vector@V?$vector@HV?$allocator@H@std@@@std@@V?$allocator@V?$vector@HV?$allocator@H@std@@@std@@@2@@std@@AEAAPEAV?$vector@HV?$allocator@H@std@@@1@QEAV21@$$QEAV21@@Z
pdata	ENDS
;	COMDAT pdata
pdata	SEGMENT
$pdata$6$??$_Emplace_reallocate@V?$vector@HV?$allocator@H@std@@@std@@@?$vector@V?$vector@HV?$allocator@H@std@@@std@@V?$allocator@V?$vector@HV?$allocator@H@std@@@std@@@2@@std@@AEAAPEAV?$vector@HV?$allocator@H@std@@@1@QEAV21@$$QEAV21@@Z DD imagerel $LN204+760
	DD	imagerel $LN204+766
	DD	imagerel $chain$6$??$_Emplace_reallocate@V?$vector@HV?$allocator@H@std@@@std@@@?$vector@V?$vector@HV?$allocator@H@std@@@std@@V?$allocator@V?$vector@HV?$allocator@H@std@@@std@@@2@@std@@AEAAPEAV?$vector@HV?$allocator@H@std@@@1@QEAV21@$$QEAV21@@Z
pdata	ENDS
;	COMDAT pdata
pdata	SEGMENT
$pdata$7$??$_Emplace_reallocate@V?$vector@HV?$allocator@H@std@@@std@@@?$vector@V?$vector@HV?$allocator@H@std@@@std@@V?$allocator@V?$vector@HV?$allocator@H@std@@@std@@@2@@std@@AEAAPEAV?$vector@HV?$allocator@H@std@@@1@QEAV21@$$QEAV21@@Z DD imagerel $LN204+766
	DD	imagerel $LN204+772
	DD	imagerel $chain$7$??$_Emplace_reallocate@V?$vector@HV?$allocator@H@std@@@std@@@?$vector@V?$vector@HV?$allocator@H@std@@@std@@V?$allocator@V?$vector@HV?$allocator@H@std@@@std@@@2@@std@@AEAAPEAV?$vector@HV?$allocator@H@std@@@1@QEAV21@$$QEAV21@@Z
pdata	ENDS
;	COMDAT pdata
pdata	SEGMENT
$pdata$??$_Erase_tree@V?$allocator@U?$_Tree_node@HPEAX@std@@@std@@@?$_Tree_val@U?$_Tree_simple_types@H@std@@@std@@QEAAXAEAV?$allocator@U?$_Tree_node@HPEAX@std@@@1@PEAU?$_Tree_node@HPEAX@1@@Z DD imagerel $LN38
	DD	imagerel $LN38+77
	DD	imagerel $unwind$??$_Erase_tree@V?$allocator@U?$_Tree_node@HPEAX@std@@@std@@@?$_Tree_val@U?$_Tree_simple_types@H@std@@@std@@QEAAXAEAV?$allocator@U?$_Tree_node@HPEAX@std@@@1@PEAU?$_Tree_node@HPEAX@1@@Z
pdata	ENDS
;	COMDAT pdata
pdata	SEGMENT
$pdata$??$_Erase_tree@V?$allocator@U?$_Tree_node@V?$vector@HV?$allocator@H@std@@@std@@PEAX@std@@@std@@@?$_Tree_val@U?$_Tree_simple_types@V?$vector@HV?$allocator@H@std@@@std@@@std@@@std@@QEAAXAEAV?$allocator@U?$_Tree_node@V?$vector@HV?$allocator@H@std@@@std@@PEAX@std@@@1@PEAU?$_Tree_node@V?$vector@HV?$allocator@H@std@@@std@@PEAX@1@@Z DD imagerel $LN76
	DD	imagerel $LN76+28
	DD	imagerel $unwind$??$_Erase_tree@V?$allocator@U?$_Tree_node@V?$vector@HV?$allocator@H@std@@@std@@PEAX@std@@@std@@@?$_Tree_val@U?$_Tree_simple_types@V?$vector@HV?$allocator@H@std@@@std@@@std@@@std@@QEAAXAEAV?$allocator@U?$_Tree_node@V?$vector@HV?$allocator@H@std@@@std@@PEAX@std@@@1@PEAU?$_Tree_node@V?$vector@HV?$allocator@H@std@@@std@@PEAX@1@@Z
pdata	ENDS
;	COMDAT pdata
pdata	SEGMENT
$pdata$1$??$_Erase_tree@V?$allocator@U?$_Tree_node@V?$vector@HV?$allocator@H@std@@@std@@PEAX@std@@@std@@@?$_Tree_val@U?$_Tree_simple_types@V?$vector@HV?$allocator@H@std@@@std@@@std@@@std@@QEAAXAEAV?$allocator@U?$_Tree_node@V?$vector@HV?$allocator@H@std@@@std@@PEAX@std@@@1@PEAU?$_Tree_node@V?$vector@HV?$allocator@H@std@@@std@@PEAX@1@@Z DD imagerel $LN76+28
	DD	imagerel $LN76+168
	DD	imagerel $chain$1$??$_Erase_tree@V?$allocator@U?$_Tree_node@V?$vector@HV?$allocator@H@std@@@std@@PEAX@std@@@std@@@?$_Tree_val@U?$_Tree_simple_types@V?$vector@HV?$allocator@H@std@@@std@@@std@@@std@@QEAAXAEAV?$allocator@U?$_Tree_node@V?$vector@HV?$allocator@H@std@@@std@@PEAX@std@@@1@PEAU?$_Tree_node@V?$vector@HV?$allocator@H@std@@@std@@PEAX@1@@Z
pdata	ENDS
;	COMDAT pdata
pdata	SEGMENT
$pdata$2$??$_Erase_tree@V?$allocator@U?$_Tree_node@V?$vector@HV?$allocator@H@std@@@std@@PEAX@std@@@std@@@?$_Tree_val@U?$_Tree_simple_types@V?$vector@HV?$allocator@H@std@@@std@@@std@@@std@@QEAAXAEAV?$allocator@U?$_Tree_node@V?$vector@HV?$allocator@H@std@@@std@@PEAX@std@@@1@PEAU?$_Tree_node@V?$vector@HV?$allocator@H@std@@@std@@PEAX@1@@Z DD imagerel $LN76+168
	DD	imagerel $LN76+176
	DD	imagerel $chain$2$??$_Erase_tree@V?$allocator@U?$_Tree_node@V?$vector@HV?$allocator@H@std@@@std@@PEAX@std@@@std@@@?$_Tree_val@U?$_Tree_simple_types@V?$vector@HV?$allocator@H@std@@@std@@@std@@@std@@QEAAXAEAV?$allocator@U?$_Tree_node@V?$vector@HV?$allocator@H@std@@@std@@PEAX@std@@@1@PEAU?$_Tree_node@V?$vector@HV?$allocator@H@std@@@std@@PEAX@1@@Z
pdata	ENDS
;	COMDAT pdata
pdata	SEGMENT
$pdata$3$??$_Erase_tree@V?$allocator@U?$_Tree_node@V?$vector@HV?$allocator@H@std@@@std@@PEAX@std@@@std@@@?$_Tree_val@U?$_Tree_simple_types@V?$vector@HV?$allocator@H@std@@@std@@@std@@@std@@QEAAXAEAV?$allocator@U?$_Tree_node@V?$vector@HV?$allocator@H@std@@@std@@PEAX@std@@@1@PEAU?$_Tree_node@V?$vector@HV?$allocator@H@std@@@std@@PEAX@1@@Z DD imagerel $LN76+176
	DD	imagerel $LN76+183
	DD	imagerel $chain$3$??$_Erase_tree@V?$allocator@U?$_Tree_node@V?$vector@HV?$allocator@H@std@@@std@@PEAX@std@@@std@@@?$_Tree_val@U?$_Tree_simple_types@V?$vector@HV?$allocator@H@std@@@std@@@std@@@std@@QEAAXAEAV?$allocator@U?$_Tree_node@V?$vector@HV?$allocator@H@std@@@std@@PEAX@std@@@1@PEAU?$_Tree_node@V?$vector@HV?$allocator@H@std@@@std@@PEAX@1@@Z
pdata	ENDS
;	COMDAT pdata
pdata	SEGMENT
$pdata$??$_Find_unchecked@PEAV?$vector@HV?$allocator@H@std@@@std@@V12@@std@@YAPEAV?$vector@HV?$allocator@H@std@@@0@PEAV10@QEAV10@AEBV10@@Z DD imagerel $LN43
	DD	imagerel $LN43+21
	DD	imagerel $unwind$??$_Find_unchecked@PEAV?$vector@HV?$allocator@H@std@@@std@@V12@@std@@YAPEAV?$vector@HV?$allocator@H@std@@@0@PEAV10@QEAV10@AEBV10@@Z
pdata	ENDS
;	COMDAT pdata
pdata	SEGMENT
$pdata$1$??$_Find_unchecked@PEAV?$vector@HV?$allocator@H@std@@@std@@V12@@std@@YAPEAV?$vector@HV?$allocator@H@std@@@0@PEAV10@QEAV10@AEBV10@@Z DD imagerel $LN43+21
	DD	imagerel $LN43+115
	DD	imagerel $chain$1$??$_Find_unchecked@PEAV?$vector@HV?$allocator@H@std@@@std@@V12@@std@@YAPEAV?$vector@HV?$allocator@H@std@@@0@PEAV10@QEAV10@AEBV10@@Z
pdata	ENDS
;	COMDAT pdata
pdata	SEGMENT
$pdata$2$??$_Find_unchecked@PEAV?$vector@HV?$allocator@H@std@@@std@@V12@@std@@YAPEAV?$vector@HV?$allocator@H@std@@@0@PEAV10@QEAV10@AEBV10@@Z DD imagerel $LN43+115
	DD	imagerel $LN43+129
	DD	imagerel $chain$2$??$_Find_unchecked@PEAV?$vector@HV?$allocator@H@std@@@std@@V12@@std@@YAPEAV?$vector@HV?$allocator@H@std@@@0@PEAV10@QEAV10@AEBV10@@Z
pdata	ENDS
;	COMDAT pdata
pdata	SEGMENT
$pdata$??$_Assign_counted_range@V?$_Tree_unchecked_const_iterator@V?$_Tree_val@U?$_Tree_simple_types@V?$vector@HV?$allocator@H@std@@@std@@@std@@@std@@U_Iterator_base0@2@@std@@@?$vector@V?$vector@HV?$allocator@H@std@@@std@@V?$allocator@V?$vector@HV?$allocator@H@std@@@std@@@2@@std@@AEAAXV?$_Tree_unchecked_const_iterator@V?$_Tree_val@U?$_Tree_simple_types@V?$vector@HV?$allocator@H@std@@@std@@@std@@@std@@U_Iterator_base0@2@@1@_K@Z DD imagerel $LN80
	DD	imagerel $LN80+456
	DD	imagerel $unwind$??$_Assign_counted_range@V?$_Tree_unchecked_const_iterator@V?$_Tree_val@U?$_Tree_simple_types@V?$vector@HV?$allocator@H@std@@@std@@@std@@@std@@U_Iterator_base0@2@@std@@@?$vector@V?$vector@HV?$allocator@H@std@@@std@@V?$allocator@V?$vector@HV?$allocator@H@std@@@std@@@2@@std@@AEAAXV?$_Tree_unchecked_const_iterator@V?$_Tree_val@U?$_Tree_simple_types@V?$vector@HV?$allocator@H@std@@@std@@@std@@@std@@U_Iterator_base0@2@@1@_K@Z
pdata	ENDS
;	COMDAT pdata
pdata	SEGMENT
$pdata$??$insert@V?$_Vector_iterator@V?$_Vector_val@U?$_Simple_types@V?$vector@HV?$allocator@H@std@@@std@@@std@@@std@@@std@@@?$_Tree@V?$_Tset_traits@V?$vector@HV?$allocator@H@std@@@std@@U?$less@V?$vector@HV?$allocator@H@std@@@std@@@2@V?$allocator@V?$vector@HV?$allocator@H@std@@@std@@@2@$0A@@std@@@std@@QEAAXV?$_Vector_iterator@V?$_Vector_val@U?$_Simple_types@V?$vector@HV?$allocator@H@std@@@std@@@std@@@std@@@1@0@Z DD imagerel $LN131
	DD	imagerel $LN131+260
	DD	imagerel $unwind$??$insert@V?$_Vector_iterator@V?$_Vector_val@U?$_Simple_types@V?$vector@HV?$allocator@H@std@@@std@@@std@@@std@@@std@@@?$_Tree@V?$_Tset_traits@V?$vector@HV?$allocator@H@std@@@std@@U?$less@V?$vector@HV?$allocator@H@std@@@std@@@2@V?$allocator@V?$vector@HV?$allocator@H@std@@@std@@@2@$0A@@std@@@std@@QEAAXV?$_Vector_iterator@V?$_Vector_val@U?$_Simple_types@V?$vector@HV?$allocator@H@std@@@std@@@std@@@std@@@1@0@Z
pdata	ENDS
;	COMDAT pdata
pdata	SEGMENT
$pdata$??$_Assign_counted_range@V?$_Tree_unchecked_const_iterator@V?$_Tree_val@U?$_Tree_simple_types@H@std@@@std@@U_Iterator_base0@2@@std@@@?$vector@HV?$allocator@H@std@@@std@@AEAAXV?$_Tree_unchecked_const_iterator@V?$_Tree_val@U?$_Tree_simple_types@H@std@@@std@@U_Iterator_base0@2@@1@_K@Z DD imagerel $LN169
	DD	imagerel $LN169+582
	DD	imagerel $unwind$??$_Assign_counted_range@V?$_Tree_unchecked_const_iterator@V?$_Tree_val@U?$_Tree_simple_types@H@std@@@std@@U_Iterator_base0@2@@std@@@?$vector@HV?$allocator@H@std@@@std@@AEAAXV?$_Tree_unchecked_const_iterator@V?$_Tree_val@U?$_Tree_simple_types@H@std@@@std@@U_Iterator_base0@2@@1@_K@Z
pdata	ENDS
;	COMDAT pdata
pdata	SEGMENT
$pdata$??$insert@V?$_Vector_iterator@V?$_Vector_val@U?$_Simple_types@H@std@@@std@@@std@@@?$_Tree@V?$_Tset_traits@HU?$less@H@std@@V?$allocator@H@2@$0A@@std@@@std@@QEAAXV?$_Vector_iterator@V?$_Vector_val@U?$_Simple_types@H@std@@@std@@@1@0@Z DD imagerel $LN98
	DD	imagerel $LN98+237
	DD	imagerel $unwind$??$insert@V?$_Vector_iterator@V?$_Vector_val@U?$_Simple_types@H@std@@@std@@@std@@@?$_Tree@V?$_Tset_traits@HU?$less@H@std@@V?$allocator@H@2@$0A@@std@@@std@@QEAAXV?$_Vector_iterator@V?$_Vector_val@U?$_Simple_types@H@std@@@std@@@1@0@Z
pdata	ENDS
;	COMDAT pdata
pdata	SEGMENT
$pdata$?allocate@?$allocator@H@std@@QEAAPEAH_K@Z DD imagerel $LN31
	DD	imagerel $LN31+112
	DD	imagerel $unwind$?allocate@?$allocator@H@std@@QEAAPEAH_K@Z
pdata	ENDS
;	COMDAT pdata
pdata	SEGMENT
$pdata$?_Buy_raw@?$vector@HV?$allocator@H@std@@@std@@AEAAX_K@Z DD imagerel $LN39
	DD	imagerel $LN39+136
	DD	imagerel $unwind$?_Buy_raw@?$vector@HV?$allocator@H@std@@@std@@AEAAX_K@Z
pdata	ENDS
;	COMDAT pdata
pdata	SEGMENT
$pdata$?_Xlength@?$vector@HV?$allocator@H@std@@@std@@CAXXZ DD imagerel $LN4
	DD	imagerel $LN4+18
	DD	imagerel $unwind$?_Xlength@?$vector@HV?$allocator@H@std@@@std@@CAXXZ
pdata	ENDS
;	COMDAT pdata
pdata	SEGMENT
$pdata$?_Alloc_sentinel_and_proxy@?$_Tree@V?$_Tset_traits@HU?$less@H@std@@V?$allocator@H@2@$0A@@std@@@std@@IEAAXXZ DD imagerel $LN31
	DD	imagerel $LN31+45
	DD	imagerel $unwind$?_Alloc_sentinel_and_proxy@?$_Tree@V?$_Tset_traits@HU?$less@H@std@@V?$allocator@H@2@$0A@@std@@@std@@IEAAXXZ
pdata	ENDS
;	COMDAT pdata
pdata	SEGMENT
$pdata$?_Alloc_sentinel_and_proxy@?$_Tree@V?$_Tset_traits@V?$vector@HV?$allocator@H@std@@@std@@U?$less@V?$vector@HV?$allocator@H@std@@@std@@@2@V?$allocator@V?$vector@HV?$allocator@H@std@@@std@@@2@$0A@@std@@@std@@IEAAXXZ DD imagerel $LN31
	DD	imagerel $LN31+45
	DD	imagerel $unwind$?_Alloc_sentinel_and_proxy@?$_Tree@V?$_Tset_traits@V?$vector@HV?$allocator@H@std@@@std@@U?$less@V?$vector@HV?$allocator@H@std@@@std@@@2@V?$allocator@V?$vector@HV?$allocator@H@std@@@std@@@2@$0A@@std@@@std@@IEAAXXZ
pdata	ENDS
;	COMDAT pdata
pdata	SEGMENT
$pdata$?_Clear_and_reserve_geometric@?$vector@HV?$allocator@H@std@@@std@@AEAAX_K@Z DD imagerel $LN38
	DD	imagerel $LN38+175
	DD	imagerel $unwind$?_Clear_and_reserve_geometric@?$vector@HV?$allocator@H@std@@@std@@AEAAX_K@Z
pdata	ENDS
;	COMDAT pdata
pdata	SEGMENT
$pdata$?_Buy_nonzero@?$vector@HV?$allocator@H@std@@@std@@AEAAX_K@Z DD imagerel $LN7
	DD	imagerel $LN7+34
	DD	imagerel $unwind$?_Buy_nonzero@?$vector@HV?$allocator@H@std@@@std@@AEAAX_K@Z
pdata	ENDS
;	COMDAT pdata
pdata	SEGMENT
$pdata$??0?$_Tree@V?$_Tset_traits@HU?$less@H@std@@V?$allocator@H@2@$0A@@std@@@std@@QEAA@AEBU?$less@H@1@@Z DD imagerel $LN41
	DD	imagerel $LN41+55
	DD	imagerel $unwind$??0?$_Tree@V?$_Tset_traits@HU?$less@H@std@@V?$allocator@H@2@$0A@@std@@@std@@QEAA@AEBU?$less@H@1@@Z
pdata	ENDS
;	COMDAT pdata
pdata	SEGMENT
$pdata$??0?$_Tree@V?$_Tset_traits@V?$vector@HV?$allocator@H@std@@@std@@U?$less@V?$vector@HV?$allocator@H@std@@@std@@@2@V?$allocator@V?$vector@HV?$allocator@H@std@@@std@@@2@$0A@@std@@@std@@QEAA@AEBU?$less@V?$vector@HV?$allocator@H@std@@@std@@@1@@Z DD imagerel $LN41
	DD	imagerel $LN41+55
	DD	imagerel $unwind$??0?$_Tree@V?$_Tset_traits@V?$vector@HV?$allocator@H@std@@@std@@U?$less@V?$vector@HV?$allocator@H@std@@@std@@@2@V?$allocator@V?$vector@HV?$allocator@H@std@@@std@@@2@$0A@@std@@@std@@QEAA@AEBU?$less@V?$vector@HV?$allocator@H@std@@@std@@@1@@Z
pdata	ENDS
;	COMDAT pdata
pdata	SEGMENT
$pdata$??1?$_Tidy_guard@V?$vector@HV?$allocator@H@std@@@std@@@std@@QEAA@XZ DD imagerel $LN33
	DD	imagerel $LN33+97
	DD	imagerel $unwind$??1?$_Tidy_guard@V?$vector@HV?$allocator@H@std@@@std@@@std@@QEAA@XZ
pdata	ENDS
;	COMDAT pdata
pdata	SEGMENT
$pdata$??_G?$vector@HV?$allocator@H@std@@@std@@QEAAPEAXI@Z DD imagerel $LN35
	DD	imagerel $LN35+95
	DD	imagerel $unwind$??_G?$vector@HV?$allocator@H@std@@@std@@QEAAPEAXI@Z
pdata	ENDS
;	COMDAT pdata
pdata	SEGMENT
$pdata$??$_Deallocate@$0BA@$0A@@std@@YAXPEAX_K@Z DD imagerel $LN18
	DD	imagerel $LN18+53
	DD	imagerel $unwind$??$_Deallocate@$0BA@$0A@@std@@YAXPEAX_K@Z
pdata	ENDS
;	COMDAT pdata
pdata	SEGMENT
$pdata$??$_Destroy_range@V?$allocator@V?$vector@HV?$allocator@H@std@@@std@@@std@@@std@@YAXPEAV?$vector@HV?$allocator@H@std@@@0@QEAV10@AEAV?$allocator@V?$vector@HV?$allocator@H@std@@@std@@@0@@Z DD imagerel $LN52
	DD	imagerel $LN52+15
	DD	imagerel $unwind$??$_Destroy_range@V?$allocator@V?$vector@HV?$allocator@H@std@@@std@@@std@@@std@@YAXPEAV?$vector@HV?$allocator@H@std@@@0@QEAV10@AEAV?$allocator@V?$vector@HV?$allocator@H@std@@@std@@@0@@Z
pdata	ENDS
;	COMDAT pdata
pdata	SEGMENT
$pdata$0$??$_Destroy_range@V?$allocator@V?$vector@HV?$allocator@H@std@@@std@@@std@@@std@@YAXPEAV?$vector@HV?$allocator@H@std@@@0@QEAV10@AEAV?$allocator@V?$vector@HV?$allocator@H@std@@@std@@@0@@Z DD imagerel $LN52+15
	DD	imagerel $LN52+124
	DD	imagerel $chain$0$??$_Destroy_range@V?$allocator@V?$vector@HV?$allocator@H@std@@@std@@@std@@@std@@YAXPEAV?$vector@HV?$allocator@H@std@@@0@QEAV10@AEAV?$allocator@V?$vector@HV?$allocator@H@std@@@std@@@0@@Z
pdata	ENDS
;	COMDAT pdata
pdata	SEGMENT
$pdata$1$??$_Destroy_range@V?$allocator@V?$vector@HV?$allocator@H@std@@@std@@@std@@@std@@YAXPEAV?$vector@HV?$allocator@H@std@@@0@QEAV10@AEAV?$allocator@V?$vector@HV?$allocator@H@std@@@std@@@0@@Z DD imagerel $LN52+124
	DD	imagerel $LN52+125
	DD	imagerel $chain$1$??$_Destroy_range@V?$allocator@V?$vector@HV?$allocator@H@std@@@std@@@std@@@std@@YAXPEAV?$vector@HV?$allocator@H@std@@@0@QEAV10@AEAV?$allocator@V?$vector@HV?$allocator@H@std@@@std@@@0@@Z
pdata	ENDS
;	COMDAT pdata
pdata	SEGMENT
$pdata$2$??$_Destroy_range@V?$allocator@V?$vector@HV?$allocator@H@std@@@std@@@std@@@std@@YAXPEAV?$vector@HV?$allocator@H@std@@@0@QEAV10@AEAV?$allocator@V?$vector@HV?$allocator@H@std@@@std@@@0@@Z DD imagerel $LN52+125
	DD	imagerel $LN52+132
	DD	imagerel $chain$2$??$_Destroy_range@V?$allocator@V?$vector@HV?$allocator@H@std@@@std@@@std@@@std@@YAXPEAV?$vector@HV?$allocator@H@std@@@0@QEAV10@AEAV?$allocator@V?$vector@HV?$allocator@H@std@@@std@@@0@@Z
pdata	ENDS
;	COMDAT pdata
pdata	SEGMENT
$pdata$??$_Construct_n@AEBH@?$vector@HV?$allocator@H@std@@@std@@AEAAX_KAEBH@Z DD imagerel $LN63
	DD	imagerel $LN63+125
	DD	imagerel $unwind$??$_Construct_n@AEBH@?$vector@HV?$allocator@H@std@@@std@@AEAAX_KAEBH@Z
pdata	ENDS
;	COMDAT pdata
pdata	SEGMENT
$pdata$??$_Construct_n@AEBQEAHAEBQEAH@?$vector@HV?$allocator@H@std@@@std@@AEAAX_KAEBQEAH1@Z DD imagerel $LN56
	DD	imagerel $LN56+37
	DD	imagerel $unwind$??$_Construct_n@AEBQEAHAEBQEAH@?$vector@HV?$allocator@H@std@@@std@@AEAAX_KAEBQEAH1@Z
pdata	ENDS
;	COMDAT pdata
pdata	SEGMENT
$pdata$0$??$_Construct_n@AEBQEAHAEBQEAH@?$vector@HV?$allocator@H@std@@@std@@AEAAX_KAEBQEAH1@Z DD imagerel $LN56+37
	DD	imagerel $LN56+95
	DD	imagerel $chain$0$??$_Construct_n@AEBQEAHAEBQEAH@?$vector@HV?$allocator@H@std@@@std@@AEAAX_KAEBQEAH1@Z
pdata	ENDS
;	COMDAT pdata
pdata	SEGMENT
$pdata$1$??$_Construct_n@AEBQEAHAEBQEAH@?$vector@HV?$allocator@H@std@@@std@@AEAAX_KAEBQEAH1@Z DD imagerel $LN56+95
	DD	imagerel $LN56+102
	DD	imagerel $chain$1$??$_Construct_n@AEBQEAHAEBQEAH@?$vector@HV?$allocator@H@std@@@std@@AEAAX_KAEBQEAH1@Z
pdata	ENDS
;	COMDAT pdata
pdata	SEGMENT
$pdata$??$_Assign_counted_range@PEBH@?$vector@HV?$allocator@H@std@@@std@@AEAAXPEBH_K@Z DD imagerel $LN68
	DD	imagerel $LN68+75
	DD	imagerel $unwind$??$_Assign_counted_range@PEBH@?$vector@HV?$allocator@H@std@@@std@@AEAAXPEBH_K@Z
pdata	ENDS
;	COMDAT pdata
pdata	SEGMENT
$pdata$0$??$_Assign_counted_range@PEBH@?$vector@HV?$allocator@H@std@@@std@@AEAAXPEBH_K@Z DD imagerel $LN68+75
	DD	imagerel $LN68+160
	DD	imagerel $chain$0$??$_Assign_counted_range@PEBH@?$vector@HV?$allocator@H@std@@@std@@AEAAXPEBH_K@Z
pdata	ENDS
;	COMDAT pdata
pdata	SEGMENT
$pdata$1$??$_Assign_counted_range@PEBH@?$vector@HV?$allocator@H@std@@@std@@AEAAXPEBH_K@Z DD imagerel $LN68+160
	DD	imagerel $LN68+180
	DD	imagerel $chain$1$??$_Assign_counted_range@PEBH@?$vector@HV?$allocator@H@std@@@std@@AEAAXPEBH_K@Z
pdata	ENDS
;	COMDAT pdata
pdata	SEGMENT
$pdata$??$_Resize@U_Value_init_tag@std@@@?$vector@HV?$allocator@H@std@@@std@@AEAAX_KAEBU_Value_init_tag@1@@Z DD imagerel $LN29
	DD	imagerel $LN29+100
	DD	imagerel $unwind$??$_Resize@U_Value_init_tag@std@@@?$vector@HV?$allocator@H@std@@@std@@AEAAX_KAEBU_Value_init_tag@1@@Z
pdata	ENDS
;	COMDAT pdata
pdata	SEGMENT
$pdata$0$??$_Resize@U_Value_init_tag@std@@@?$vector@HV?$allocator@H@std@@@std@@AEAAX_KAEBU_Value_init_tag@1@@Z DD imagerel $LN29+100
	DD	imagerel $LN29+142
	DD	imagerel $chain$0$??$_Resize@U_Value_init_tag@std@@@?$vector@HV?$allocator@H@std@@@std@@AEAAX_KAEBU_Value_init_tag@1@@Z
pdata	ENDS
;	COMDAT pdata
pdata	SEGMENT
$pdata$1$??$_Resize@U_Value_init_tag@std@@@?$vector@HV?$allocator@H@std@@@std@@AEAAX_KAEBU_Value_init_tag@1@@Z DD imagerel $LN29+142
	DD	imagerel $LN29+153
	DD	imagerel $chain$1$??$_Resize@U_Value_init_tag@std@@@?$vector@HV?$allocator@H@std@@@std@@AEAAX_KAEBU_Value_init_tag@1@@Z
pdata	ENDS
;	COMDAT pdata
pdata	SEGMENT
$pdata$??$destroy@V?$vector@HV?$allocator@H@std@@@std@@@?$_Default_allocator_traits@V?$allocator@V?$vector@HV?$allocator@H@std@@@std@@@std@@@std@@SAXAEAV?$allocator@V?$vector@HV?$allocator@H@std@@@std@@@1@QEAV?$vector@HV?$allocator@H@std@@@1@@Z DD imagerel $LN38
	DD	imagerel $LN38+92
	DD	imagerel $unwind$??$destroy@V?$vector@HV?$allocator@H@std@@@std@@@?$_Default_allocator_traits@V?$allocator@V?$vector@HV?$allocator@H@std@@@std@@@std@@@std@@SAXAEAV?$allocator@V?$vector@HV?$allocator@H@std@@@std@@@1@QEAV?$vector@HV?$allocator@H@std@@@1@@Z
pdata	ENDS
;	COMDAT pdata
pdata	SEGMENT
$pdata$??$_Move_unchecked@PEAV?$vector@HV?$allocator@H@std@@@std@@PEAV12@@std@@YAPEAV?$vector@HV?$allocator@H@std@@@0@PEAV10@00@Z DD imagerel $LN48
	DD	imagerel $LN48+174
	DD	imagerel $unwind$??$_Move_unchecked@PEAV?$vector@HV?$allocator@H@std@@@std@@PEAV12@@std@@YAPEAV?$vector@HV?$allocator@H@std@@@0@PEAV10@00@Z
pdata	ENDS
;	COMDAT pdata
pdata	SEGMENT
$pdata$??$_Erase_head@V?$allocator@U?$_Tree_node@HPEAX@std@@@std@@@?$_Tree_val@U?$_Tree_simple_types@H@std@@@std@@QEAAXAEAV?$allocator@U?$_Tree_node@HPEAX@std@@@1@@Z DD imagerel $LN61
	DD	imagerel $LN61+113
	DD	imagerel $unwind$??$_Erase_head@V?$allocator@U?$_Tree_node@HPEAX@std@@@std@@@?$_Tree_val@U?$_Tree_simple_types@H@std@@@std@@QEAAXAEAV?$allocator@U?$_Tree_node@HPEAX@std@@@1@@Z
pdata	ENDS
;	COMDAT pdata
pdata	SEGMENT
$pdata$??$_Erase_head@V?$allocator@U?$_Tree_node@V?$vector@HV?$allocator@H@std@@@std@@PEAX@std@@@std@@@?$_Tree_val@U?$_Tree_simple_types@V?$vector@HV?$allocator@H@std@@@std@@@std@@@std@@QEAAXAEAV?$allocator@U?$_Tree_node@V?$vector@HV?$allocator@H@std@@@std@@PEAX@std@@@1@@Z DD imagerel $LN26
	DD	imagerel $LN26+39
	DD	imagerel $unwind$??$_Erase_head@V?$allocator@U?$_Tree_node@V?$vector@HV?$allocator@H@std@@@std@@PEAX@std@@@std@@@?$_Tree_val@U?$_Tree_simple_types@V?$vector@HV?$allocator@H@std@@@std@@@std@@@std@@QEAAXAEAV?$allocator@U?$_Tree_node@V?$vector@HV?$allocator@H@std@@@std@@PEAX@std@@@1@@Z
pdata	ENDS
;	COMDAT pdata
pdata	SEGMENT
$pdata$??$endl@DU?$char_traits@D@std@@@std@@YAAEAV?$basic_ostream@DU?$char_traits@D@std@@@0@AEAV10@@Z DD imagerel $LN4
	DD	imagerel $LN4+57
	DD	imagerel $unwind$??$endl@DU?$char_traits@D@std@@@std@@YAAEAV?$basic_ostream@DU?$char_traits@D@std@@@0@AEAV10@@Z
pdata	ENDS
;	COMDAT pdata
pdata	SEGMENT
$pdata$??$?6U?$char_traits@D@std@@@std@@YAAEAV?$basic_ostream@DU?$char_traits@D@std@@@0@AEAV10@PEBD@Z DD imagerel $LN104
	DD	imagerel $LN104+432
	DD	imagerel $unwind$??$?6U?$char_traits@D@std@@@std@@YAAEAV?$basic_ostream@DU?$char_traits@D@std@@@0@AEAV10@PEBD@Z
pdata	ENDS
;	COMDAT pdata
pdata	SEGMENT
$pdata$?catch$17@?0???$?6U?$char_traits@D@std@@@std@@YAAEAV?$basic_ostream@DU?$char_traits@D@std@@@0@AEAV10@PEBD@Z@4HA DD imagerel ?catch$17@?0???$?6U?$char_traits@D@std@@@std@@YAAEAV?$basic_ostream@DU?$char_traits@D@std@@@0@AEAV10@PEBD@Z@4HA
	DD	imagerel ?catch$17@?0???$?6U?$char_traits@D@std@@@std@@YAAEAV?$basic_ostream@DU?$char_traits@D@std@@@0@AEAV10@PEBD@Z@4HA+59
	DD	imagerel $unwind$?catch$17@?0???$?6U?$char_traits@D@std@@@std@@YAAEAV?$basic_ostream@DU?$char_traits@D@std@@@0@AEAV10@PEBD@Z@4HA
pdata	ENDS
;	COMDAT pdata
pdata	SEGMENT
$pdata$??$find@V?$_Vector_iterator@V?$_Vector_val@U?$_Simple_types@V?$vector@HV?$allocator@H@std@@@std@@@std@@@std@@@std@@V?$vector@HV?$allocator@H@std@@@2@@std@@YA?AV?$_Vector_iterator@V?$_Vector_val@U?$_Simple_types@V?$vector@HV?$allocator@H@std@@@std@@@std@@@std@@@0@V10@V10@AEBV?$vector@HV?$allocator@H@std@@@0@@Z DD imagerel $LN45
	DD	imagerel $LN45+22
	DD	imagerel $unwind$??$find@V?$_Vector_iterator@V?$_Vector_val@U?$_Simple_types@V?$vector@HV?$allocator@H@std@@@std@@@std@@@std@@@std@@V?$vector@HV?$allocator@H@std@@@2@@std@@YA?AV?$_Vector_iterator@V?$_Vector_val@U?$_Simple_types@V?$vector@HV?$allocator@H@std@@@std@@@std@@@std@@@0@V10@V10@AEBV?$vector@HV?$allocator@H@std@@@0@@Z
pdata	ENDS
;	COMDAT pdata
pdata	SEGMENT
$pdata$1$??$find@V?$_Vector_iterator@V?$_Vector_val@U?$_Simple_types@V?$vector@HV?$allocator@H@std@@@std@@@std@@@std@@@std@@V?$vector@HV?$allocator@H@std@@@2@@std@@YA?AV?$_Vector_iterator@V?$_Vector_val@U?$_Simple_types@V?$vector@HV?$allocator@H@std@@@std@@@std@@@std@@@0@V10@V10@AEBV?$vector@HV?$allocator@H@std@@@0@@Z DD imagerel $LN45+22
	DD	imagerel $LN45+115
	DD	imagerel $chain$1$??$find@V?$_Vector_iterator@V?$_Vector_val@U?$_Simple_types@V?$vector@HV?$allocator@H@std@@@std@@@std@@@std@@@std@@V?$vector@HV?$allocator@H@std@@@2@@std@@YA?AV?$_Vector_iterator@V?$_Vector_val@U?$_Simple_types@V?$vector@HV?$allocator@H@std@@@std@@@std@@@std@@@0@V10@V10@AEBV?$vector@HV?$allocator@H@std@@@0@@Z
pdata	ENDS
;	COMDAT pdata
pdata	SEGMENT
$pdata$2$??$find@V?$_Vector_iterator@V?$_Vector_val@U?$_Simple_types@V?$vector@HV?$allocator@H@std@@@std@@@std@@@std@@@std@@V?$vector@HV?$allocator@H@std@@@2@@std@@YA?AV?$_Vector_iterator@V?$_Vector_val@U?$_Simple_types@V?$vector@HV?$allocator@H@std@@@std@@@std@@@std@@@0@V10@V10@AEBV?$vector@HV?$allocator@H@std@@@0@@Z DD imagerel $LN45+115
	DD	imagerel $LN45+129
	DD	imagerel $chain$2$??$find@V?$_Vector_iterator@V?$_Vector_val@U?$_Simple_types@V?$vector@HV?$allocator@H@std@@@std@@@std@@@std@@@std@@V?$vector@HV?$allocator@H@std@@@2@@std@@YA?AV?$_Vector_iterator@V?$_Vector_val@U?$_Simple_types@V?$vector@HV?$allocator@H@std@@@std@@@std@@@std@@@0@V10@V10@AEBV?$vector@HV?$allocator@H@std@@@0@@Z
pdata	ENDS
;	COMDAT pdata
pdata	SEGMENT
$pdata$??$assign@V?$_Tree_const_iterator@V?$_Tree_val@U?$_Tree_simple_types@V?$vector@HV?$allocator@H@std@@@std@@@std@@@std@@@std@@$0A@@?$vector@V?$vector@HV?$allocator@H@std@@@std@@V?$allocator@V?$vector@HV?$allocator@H@std@@@std@@@2@@std@@QEAAXV?$_Tree_const_iterator@V?$_Tree_val@U?$_Tree_simple_types@V?$vector@HV?$allocator@H@std@@@std@@@std@@@std@@@1@0@Z DD imagerel $LN57
	DD	imagerel $LN57+145
	DD	imagerel $unwind$??$assign@V?$_Tree_const_iterator@V?$_Tree_val@U?$_Tree_simple_types@V?$vector@HV?$allocator@H@std@@@std@@@std@@@std@@@std@@$0A@@?$vector@V?$vector@HV?$allocator@H@std@@@std@@V?$allocator@V?$vector@HV?$allocator@H@std@@@std@@@2@@std@@QEAAXV?$_Tree_const_iterator@V?$_Tree_val@U?$_Tree_simple_types@V?$vector@HV?$allocator@H@std@@@std@@@std@@@std@@@1@0@Z
pdata	ENDS
;	COMDAT pdata
pdata	SEGMENT
$pdata$??$?0V?$_Vector_iterator@V?$_Vector_val@U?$_Simple_types@V?$vector@HV?$allocator@H@std@@@std@@@std@@@std@@@std@@@?$set@V?$vector@HV?$allocator@H@std@@@std@@U?$less@V?$vector@HV?$allocator@H@std@@@std@@@2@V?$allocator@V?$vector@HV?$allocator@H@std@@@std@@@2@@std@@QEAA@V?$_Vector_iterator@V?$_Vector_val@U?$_Simple_types@V?$vector@HV?$allocator@H@std@@@std@@@std@@@std@@@1@0@Z DD imagerel $LN172
	DD	imagerel $LN172+314
	DD	imagerel $unwind$??$?0V?$_Vector_iterator@V?$_Vector_val@U?$_Simple_types@V?$vector@HV?$allocator@H@std@@@std@@@std@@@std@@@std@@@?$set@V?$vector@HV?$allocator@H@std@@@std@@U?$less@V?$vector@HV?$allocator@H@std@@@std@@@2@V?$allocator@V?$vector@HV?$allocator@H@std@@@std@@@2@@std@@QEAA@V?$_Vector_iterator@V?$_Vector_val@U?$_Simple_types@V?$vector@HV?$allocator@H@std@@@std@@@std@@@std@@@1@0@Z
pdata	ENDS
;	COMDAT pdata
pdata	SEGMENT
$pdata$??$assign@V?$_Tree_const_iterator@V?$_Tree_val@U?$_Tree_simple_types@H@std@@@std@@@std@@$0A@@?$vector@HV?$allocator@H@std@@@std@@QEAAXV?$_Tree_const_iterator@V?$_Tree_val@U?$_Tree_simple_types@H@std@@@std@@@1@0@Z DD imagerel $LN57
	DD	imagerel $LN57+145
	DD	imagerel $unwind$??$assign@V?$_Tree_const_iterator@V?$_Tree_val@U?$_Tree_simple_types@H@std@@@std@@@std@@$0A@@?$vector@HV?$allocator@H@std@@@std@@QEAAXV?$_Tree_const_iterator@V?$_Tree_val@U?$_Tree_simple_types@H@std@@@std@@@1@0@Z
pdata	ENDS
;	COMDAT pdata
pdata	SEGMENT
$pdata$??$?0V?$_Vector_iterator@V?$_Vector_val@U?$_Simple_types@H@std@@@std@@@std@@@?$set@HU?$less@H@std@@V?$allocator@H@2@@std@@QEAA@V?$_Vector_iterator@V?$_Vector_val@U?$_Simple_types@H@std@@@std@@@1@0@Z DD imagerel $LN139
	DD	imagerel $LN139+291
	DD	imagerel $unwind$??$?0V?$_Vector_iterator@V?$_Vector_val@U?$_Simple_types@H@std@@@std@@@std@@@?$set@HU?$less@H@std@@V?$allocator@H@2@@std@@QEAA@V?$_Vector_iterator@V?$_Vector_val@U?$_Simple_types@H@std@@@std@@@1@0@Z
pdata	ENDS
;	COMDAT pdata
pdata	SEGMENT
$pdata$?deallocate@?$allocator@H@std@@QEAAXQEAH_K@Z DD imagerel $LN21
	DD	imagerel $LN21+67
	DD	imagerel $unwind$?deallocate@?$allocator@H@std@@QEAAXQEAH_K@Z
pdata	ENDS
;	COMDAT pdata
pdata	SEGMENT
$pdata$?deallocate@?$allocator@V?$vector@HV?$allocator@H@std@@@std@@@std@@QEAAXQEAV?$vector@HV?$allocator@H@std@@@2@_K@Z DD imagerel $LN21
	DD	imagerel $LN21+67
	DD	imagerel $unwind$?deallocate@?$allocator@V?$vector@HV?$allocator@H@std@@@std@@@std@@QEAAXQEAV?$vector@HV?$allocator@H@std@@@2@_K@Z
pdata	ENDS
;	COMDAT pdata
pdata	SEGMENT
$pdata$??0_Sentry_base@?$basic_ostream@DU?$char_traits@D@std@@@std@@QEAA@AEAV12@@Z DD imagerel $LN11
	DD	imagerel $LN11+44
	DD	imagerel $unwind$??0_Sentry_base@?$basic_ostream@DU?$char_traits@D@std@@@std@@QEAA@AEAV12@@Z
pdata	ENDS
;	COMDAT pdata
pdata	SEGMENT
$pdata$??1_Sentry_base@?$basic_ostream@DU?$char_traits@D@std@@@std@@QEAA@XZ DD imagerel $LN9
	DD	imagerel $LN9+36
	DD	imagerel $unwind$??1_Sentry_base@?$basic_ostream@DU?$char_traits@D@std@@@std@@QEAA@XZ
pdata	ENDS
;	COMDAT pdata
pdata	SEGMENT
$pdata$?_Tidy@?$vector@HV?$allocator@H@std@@@std@@AEAAXXZ DD imagerel $LN28
	DD	imagerel $LN28+92
	DD	imagerel $unwind$?_Tidy@?$vector@HV?$allocator@H@std@@@std@@AEAAXXZ
pdata	ENDS
;	COMDAT pdata
pdata	SEGMENT
$pdata$?_Tidy@?$vector@V?$vector@HV?$allocator@H@std@@@std@@V?$allocator@V?$vector@HV?$allocator@H@std@@@std@@@2@@std@@AEAAXXZ DD imagerel $LN28
	DD	imagerel $LN28+135
	DD	imagerel $unwind$?_Tidy@?$vector@V?$vector@HV?$allocator@H@std@@@std@@V?$allocator@V?$vector@HV?$allocator@H@std@@@std@@@2@@std@@AEAAXXZ
pdata	ENDS
;	COMDAT pdata
pdata	SEGMENT
$pdata$??0sentry@?$basic_ostream@DU?$char_traits@D@std@@@std@@QEAA@AEAV12@@Z DD imagerel $LN18
	DD	imagerel $LN18+133
	DD	imagerel $unwind$??0sentry@?$basic_ostream@DU?$char_traits@D@std@@@std@@QEAA@AEAV12@@Z
pdata	ENDS
;	COMDAT pdata
pdata	SEGMENT
$pdata$??1sentry@?$basic_ostream@DU?$char_traits@D@std@@@std@@QEAA@XZ DD imagerel $LN14
	DD	imagerel $LN14+62
	DD	imagerel $unwind$??1sentry@?$basic_ostream@DU?$char_traits@D@std@@@std@@QEAA@XZ
pdata	ENDS
;	COMDAT pdata
pdata	SEGMENT
$pdata$??0?$vector@HV?$allocator@H@std@@@std@@QEAA@_KAEBHAEBV?$allocator@H@1@@Z DD imagerel $LN70
	DD	imagerel $LN70+144
	DD	imagerel $unwind$??0?$vector@HV?$allocator@H@std@@@std@@QEAA@_KAEBHAEBV?$allocator@H@1@@Z
pdata	ENDS
;	COMDAT pdata
pdata	SEGMENT
$pdata$??0?$vector@HV?$allocator@H@std@@@std@@QEAA@AEBV01@@Z DD imagerel $LN62
	DD	imagerel $LN62+60
	DD	imagerel $unwind$??0?$vector@HV?$allocator@H@std@@@std@@QEAA@AEBV01@@Z
pdata	ENDS
;	COMDAT pdata
pdata	SEGMENT
$pdata$0$??0?$vector@HV?$allocator@H@std@@@std@@QEAA@AEBV01@@Z DD imagerel $LN62+60
	DD	imagerel $LN62+111
	DD	imagerel $chain$0$??0?$vector@HV?$allocator@H@std@@@std@@QEAA@AEBV01@@Z
pdata	ENDS
;	COMDAT pdata
pdata	SEGMENT
$pdata$1$??0?$vector@HV?$allocator@H@std@@@std@@QEAA@AEBV01@@Z DD imagerel $LN62+111
	DD	imagerel $LN62+131
	DD	imagerel $chain$1$??0?$vector@HV?$allocator@H@std@@@std@@QEAA@AEBV01@@Z
pdata	ENDS
;	COMDAT pdata
pdata	SEGMENT
$pdata$??4?$vector@HV?$allocator@H@std@@@std@@QEAAAEAV01@$$QEAV01@@Z DD imagerel $LN37
	DD	imagerel $LN37+24
	DD	imagerel $unwind$??4?$vector@HV?$allocator@H@std@@@std@@QEAAAEAV01@$$QEAV01@@Z
pdata	ENDS
;	COMDAT pdata
pdata	SEGMENT
$pdata$0$??4?$vector@HV?$allocator@H@std@@@std@@QEAAAEAV01@$$QEAV01@@Z DD imagerel $LN37+24
	DD	imagerel $LN37+134
	DD	imagerel $chain$0$??4?$vector@HV?$allocator@H@std@@@std@@QEAAAEAV01@$$QEAV01@@Z
pdata	ENDS
;	COMDAT pdata
pdata	SEGMENT
$pdata$1$??4?$vector@HV?$allocator@H@std@@@std@@QEAAAEAV01@$$QEAV01@@Z DD imagerel $LN37+134
	DD	imagerel $LN37+148
	DD	imagerel $chain$1$??4?$vector@HV?$allocator@H@std@@@std@@QEAAAEAV01@$$QEAV01@@Z
pdata	ENDS
;	COMDAT pdata
pdata	SEGMENT
$pdata$2$??4?$vector@HV?$allocator@H@std@@@std@@QEAAAEAV01@$$QEAV01@@Z DD imagerel $LN37+148
	DD	imagerel $LN37+155
	DD	imagerel $chain$2$??4?$vector@HV?$allocator@H@std@@@std@@QEAAAEAV01@$$QEAV01@@Z
pdata	ENDS
;	COMDAT pdata
pdata	SEGMENT
$pdata$??1?$vector@HV?$allocator@H@std@@@std@@QEAA@XZ DD imagerel $LN31
	DD	imagerel $LN31+92
	DD	imagerel $unwind$??1?$vector@HV?$allocator@H@std@@@std@@QEAA@XZ
pdata	ENDS
;	COMDAT pdata
pdata	SEGMENT
$pdata$??4?$vector@HV?$allocator@H@std@@@std@@QEAAAEAV01@V?$initializer_list@H@1@@Z DD imagerel $LN71
	DD	imagerel $LN71+205
	DD	imagerel $unwind$??4?$vector@HV?$allocator@H@std@@@std@@QEAAAEAV01@V?$initializer_list@H@1@@Z
pdata	ENDS
;	COMDAT pdata
pdata	SEGMENT
$pdata$?resize@?$vector@HV?$allocator@H@std@@@std@@QEAAX_K@Z DD imagerel $LN31
	DD	imagerel $LN31+100
	DD	imagerel $unwind$?resize@?$vector@HV?$allocator@H@std@@@std@@QEAAX_K@Z
pdata	ENDS
;	COMDAT pdata
pdata	SEGMENT
$pdata$0$?resize@?$vector@HV?$allocator@H@std@@@std@@QEAAX_K@Z DD imagerel $LN31+100
	DD	imagerel $LN31+142
	DD	imagerel $chain$0$?resize@?$vector@HV?$allocator@H@std@@@std@@QEAAX_K@Z
pdata	ENDS
;	COMDAT pdata
pdata	SEGMENT
$pdata$1$?resize@?$vector@HV?$allocator@H@std@@@std@@QEAAX_K@Z DD imagerel $LN31+142
	DD	imagerel $LN31+153
	DD	imagerel $chain$1$?resize@?$vector@HV?$allocator@H@std@@@std@@QEAAX_K@Z
pdata	ENDS
;	COMDAT pdata
pdata	SEGMENT
$pdata$??1?$vector@V?$vector@HV?$allocator@H@std@@@std@@V?$allocator@V?$vector@HV?$allocator@H@std@@@std@@@2@@std@@QEAA@XZ DD imagerel $LN31
	DD	imagerel $LN31+135
	DD	imagerel $unwind$??1?$vector@V?$vector@HV?$allocator@H@std@@@std@@V?$allocator@V?$vector@HV?$allocator@H@std@@@std@@@2@@std@@QEAA@XZ
pdata	ENDS
;	COMDAT pdata
pdata	SEGMENT
$pdata$?erase@?$vector@V?$vector@HV?$allocator@H@std@@@std@@V?$allocator@V?$vector@HV?$allocator@H@std@@@std@@@2@@std@@QEAA?AV?$_Vector_iterator@V?$_Vector_val@U?$_Simple_types@V?$vector@HV?$allocator@H@std@@@std@@@std@@@std@@@2@V?$_Vector_const_iterator@V?$_Vector_val@U?$_Simple_types@V?$vector@HV?$allocator@H@std@@@std@@@std@@@std@@@2@@Z DD imagerel $LN88
	DD	imagerel $LN88+285
	DD	imagerel $unwind$?erase@?$vector@V?$vector@HV?$allocator@H@std@@@std@@V?$allocator@V?$vector@HV?$allocator@H@std@@@std@@@2@@std@@QEAA?AV?$_Vector_iterator@V?$_Vector_val@U?$_Simple_types@V?$vector@HV?$allocator@H@std@@@std@@@std@@@std@@@2@V?$_Vector_const_iterator@V?$_Vector_val@U?$_Simple_types@V?$vector@HV?$allocator@H@std@@@std@@@std@@@std@@@2@@Z
pdata	ENDS
;	COMDAT pdata
pdata	SEGMENT
$pdata$??1?$_Tree@V?$_Tset_traits@HU?$less@H@std@@V?$allocator@H@2@$0A@@std@@@std@@QEAA@XZ DD imagerel $LN64
	DD	imagerel $LN64+92
	DD	imagerel $unwind$??1?$_Tree@V?$_Tset_traits@HU?$less@H@std@@V?$allocator@H@2@$0A@@std@@@std@@QEAA@XZ
pdata	ENDS
;	COMDAT pdata
pdata	SEGMENT
$pdata$??1?$_Tree@V?$_Tset_traits@V?$vector@HV?$allocator@H@std@@@std@@U?$less@V?$vector@HV?$allocator@H@std@@@std@@@2@V?$allocator@V?$vector@HV?$allocator@H@std@@@std@@@2@$0A@@std@@@std@@QEAA@XZ DD imagerel $LN29
	DD	imagerel $LN29+42
	DD	imagerel $unwind$??1?$_Tree@V?$_Tset_traits@V?$vector@HV?$allocator@H@std@@@std@@U?$less@V?$vector@HV?$allocator@H@std@@@std@@@2@V?$allocator@V?$vector@HV?$allocator@H@std@@@std@@@2@$0A@@std@@@std@@QEAA@XZ
pdata	ENDS
;	COMDAT pdata
pdata	SEGMENT
$pdata$??1Solution@@QEAA@XZ DD imagerel $LN34
	DD	imagerel $LN34+92
	DD	imagerel $unwind$??1Solution@@QEAA@XZ
pdata	ENDS
;	COMDAT pdata
pdata	SEGMENT
$pdata$main DD	imagerel $LN453
	DD	imagerel $LN453+1202
	DD	imagerel $unwind$main
pdata	ENDS
;	COMDAT pdata
pdata	SEGMENT
$pdata$??1?$set@V?$vector@HV?$allocator@H@std@@@std@@U?$less@V?$vector@HV?$allocator@H@std@@@std@@@2@V?$allocator@V?$vector@HV?$allocator@H@std@@@std@@@2@@std@@QEAA@XZ DD imagerel $LN32
	DD	imagerel $LN32+42
	DD	imagerel $unwind$??1?$set@V?$vector@HV?$allocator@H@std@@@std@@U?$less@V?$vector@HV?$allocator@H@std@@@std@@@2@V?$allocator@V?$vector@HV?$allocator@H@std@@@std@@@2@@std@@QEAA@XZ
pdata	ENDS
;	COMDAT pdata
pdata	SEGMENT
$pdata$??1?$set@HU?$less@H@std@@V?$allocator@H@2@@std@@QEAA@XZ DD imagerel $LN67
	DD	imagerel $LN67+92
	DD	imagerel $unwind$??1?$set@HU?$less@H@std@@V?$allocator@H@2@@std@@QEAA@XZ
pdata	ENDS
;	COMDAT pdata
pdata	SEGMENT
$pdata$?dfs@Solution@@QEAAHAEAV?$vector@V?$vector@HV?$allocator@H@std@@@std@@V?$allocator@V?$vector@HV?$allocator@H@std@@@std@@@2@@std@@AEAV?$vector@HV?$allocator@H@std@@@3@HHAEAH@Z DD imagerel $LN545
	DD	imagerel $LN545+1342
	DD	imagerel $unwind$?dfs@Solution@@QEAAHAEAV?$vector@V?$vector@HV?$allocator@H@std@@@std@@V?$allocator@V?$vector@HV?$allocator@H@std@@@std@@@2@@std@@AEAV?$vector@HV?$allocator@H@std@@@3@HHAEAH@Z
pdata	ENDS
;	COMDAT pdata
pdata	SEGMENT
$pdata$?combinationSum2@Solution@@QEAA?AV?$vector@V?$vector@HV?$allocator@H@std@@@std@@V?$allocator@V?$vector@HV?$allocator@H@std@@@std@@@2@@std@@AEAV?$vector@HV?$allocator@H@std@@@3@H@Z DD imagerel $LN721
	DD	imagerel $LN721+1395
	DD	imagerel $unwind$?combinationSum2@Solution@@QEAA?AV?$vector@V?$vector@HV?$allocator@H@std@@@std@@V?$allocator@V?$vector@HV?$allocator@H@std@@@std@@@2@@std@@AEAV?$vector@HV?$allocator@H@std@@@3@H@Z
pdata	ENDS
;	COMDAT pdata
pdata	SEGMENT
$pdata$?dtor$1@?0??combinationSum2@Solution@@QEAA?AV?$vector@V?$vector@HV?$allocator@H@std@@@std@@V?$allocator@V?$vector@HV?$allocator@H@std@@@std@@@2@@std@@AEAV?$vector@HV?$allocator@H@std@@@3@H@Z@4HA DD imagerel ?dtor$1@?0??combinationSum2@Solution@@QEAA?AV?$vector@V?$vector@HV?$allocator@H@std@@@std@@V?$allocator@V?$vector@HV?$allocator@H@std@@@std@@@2@@std@@AEAV?$vector@HV?$allocator@H@std@@@3@H@Z@4HA
	DD	imagerel ?dtor$1@?0??combinationSum2@Solution@@QEAA?AV?$vector@V?$vector@HV?$allocator@H@std@@@std@@V?$allocator@V?$vector@HV?$allocator@H@std@@@std@@@2@@std@@AEAV?$vector@HV?$allocator@H@std@@@3@H@Z@4HA+38
	DD	imagerel $unwind$?dtor$1@?0??combinationSum2@Solution@@QEAA?AV?$vector@V?$vector@HV?$allocator@H@std@@@std@@V?$allocator@V?$vector@HV?$allocator@H@std@@@std@@@2@@std@@AEAV?$vector@HV?$allocator@H@std@@@3@H@Z@4HA
pdata	ENDS
;	COMDAT pdata
pdata	SEGMENT
$pdata$?_Throw_tree_length_error@std@@YAXXZ DD imagerel $LN4
	DD	imagerel $LN4+18
	DD	imagerel $unwind$?_Throw_tree_length_error@std@@YAXXZ
pdata	ENDS
;	COMDAT pdata
pdata	SEGMENT
$pdata$?_Adjust_manually_vector_aligned@std@@YAXAEAPEAXAEA_K@Z DD imagerel $LN13
	DD	imagerel $LN13+43
	DD	imagerel $unwind$?_Adjust_manually_vector_aligned@std@@YAXAEAPEAXAEA_K@Z
pdata	ENDS
;	COMDAT pdata
pdata	SEGMENT
$pdata$??0bad_alloc@std@@QEAA@AEBV01@@Z DD imagerel $LN7
	DD	imagerel $LN7+61
	DD	imagerel $unwind$??0bad_alloc@std@@QEAA@AEBV01@@Z
pdata	ENDS
;	COMDAT pdata
pdata	SEGMENT
$pdata$??0bad_array_new_length@std@@QEAA@AEBV01@@Z DD imagerel $LN10
	DD	imagerel $LN10+61
	DD	imagerel $unwind$??0bad_array_new_length@std@@QEAA@AEBV01@@Z
pdata	ENDS
;	COMDAT pdata
pdata	SEGMENT
$pdata$?_Throw_bad_array_new_length@std@@YAXXZ DD imagerel $LN4
	DD	imagerel $LN4+32
	DD	imagerel $unwind$?_Throw_bad_array_new_length@std@@YAXXZ
pdata	ENDS
;	COMDAT pdata
pdata	SEGMENT
$pdata$??_Gbad_array_new_length@std@@UEAAPEAXI@Z DD imagerel $LN16
	DD	imagerel $LN16+67
	DD	imagerel $unwind$??_Gbad_array_new_length@std@@UEAAPEAXI@Z
pdata	ENDS
;	COMDAT pdata
pdata	SEGMENT
$pdata$??_Gbad_alloc@std@@UEAAPEAXI@Z DD imagerel $LN13
	DD	imagerel $LN13+67
	DD	imagerel $unwind$??_Gbad_alloc@std@@UEAAPEAXI@Z
pdata	ENDS
;	COMDAT pdata
pdata	SEGMENT
$pdata$??_Gexception@std@@UEAAPEAXI@Z DD imagerel $LN10
	DD	imagerel $LN10+67
	DD	imagerel $unwind$??_Gexception@std@@UEAAPEAXI@Z
pdata	ENDS
;	COMDAT pdata
pdata	SEGMENT
$pdata$??0exception@std@@QEAA@AEBV01@@Z DD imagerel $LN5
	DD	imagerel $LN5+51
	DD	imagerel $unwind$??0exception@std@@QEAA@AEBV01@@Z
pdata	ENDS
;	COMDAT __xmm@00000004000000010000000300000005
CONST	SEGMENT
__xmm@00000004000000010000000300000005 DB 05H, 00H, 00H, 00H, 03H, 00H, 00H
	DB	00H, 01H, 00H, 00H, 00H, 04H, 00H, 00H, 00H
CONST	ENDS
;	COMDAT __xmm@00000001000000050000000400000005
CONST	SEGMENT
__xmm@00000001000000050000000400000005 DB 05H, 00H, 00H, 00H, 04H, 00H, 00H
	DB	00H, 05H, 00H, 00H, 00H, 01H, 00H, 00H, 00H
CONST	ENDS
;	COMDAT __xmm@00000001000000020000000400000004
CONST	SEGMENT
__xmm@00000001000000020000000400000004 DB 04H, 00H, 00H, 00H, 04H, 00H, 00H
	DB	00H, 02H, 00H, 00H, 00H, 01H, 00H, 00H, 00H
CONST	ENDS
;	COMDAT __xmm@00000001000000020000000200000004
CONST	SEGMENT
__xmm@00000001000000020000000200000004 DB 04H, 00H, 00H, 00H, 02H, 00H, 00H
	DB	00H, 02H, 00H, 00H, 00H, 01H, 00H, 00H, 00H
CONST	ENDS
;	COMDAT __xmm@00000001000000010000000100000001
CONST	SEGMENT
__xmm@00000001000000010000000100000001 DB 01H, 00H, 00H, 00H, 01H, 00H, 00H
	DB	00H, 01H, 00H, 00H, 00H, 01H, 00H, 00H, 00H
CONST	ENDS
;	COMDAT xdata
xdata	SEGMENT
$unwind$??0exception@std@@QEAA@AEBV01@@Z DD 020601H
	DD	030023206H
xdata	ENDS
;	COMDAT xdata
xdata	SEGMENT
$unwind$??_Gexception@std@@UEAAPEAXI@Z DD 040a01H
	DD	06340aH
	DD	07006320aH
xdata	ENDS
;	COMDAT xdata
xdata	SEGMENT
$unwind$??_Gbad_alloc@std@@UEAAPEAXI@Z DD 040a01H
	DD	06340aH
	DD	07006320aH
xdata	ENDS
;	COMDAT xdata
xdata	SEGMENT
$unwind$??_Gbad_array_new_length@std@@UEAAPEAXI@Z DD 040a01H
	DD	06340aH
	DD	07006320aH
xdata	ENDS
;	COMDAT xdata
xdata	SEGMENT
$unwind$?_Throw_bad_array_new_length@std@@YAXXZ DD 010401H
	DD	08204H
xdata	ENDS
;	COMDAT xdata
xdata	SEGMENT
$unwind$??0bad_array_new_length@std@@QEAA@AEBV01@@Z DD 020601H
	DD	030023206H
xdata	ENDS
;	COMDAT xdata
xdata	SEGMENT
$unwind$??0bad_alloc@std@@QEAA@AEBV01@@Z DD 020601H
	DD	030023206H
xdata	ENDS
;	COMDAT xdata
xdata	SEGMENT
$unwind$?_Adjust_manually_vector_aligned@std@@YAXAEAPEAXAEA_K@Z DD 010401H
	DD	04204H
xdata	ENDS
;	COMDAT xdata
xdata	SEGMENT
$unwind$?_Throw_tree_length_error@std@@YAXXZ DD 010401H
	DD	04204H
xdata	ENDS
;	COMDAT xdata
xdata	SEGMENT
$unwind$?dtor$1@?0??combinationSum2@Solution@@QEAA?AV?$vector@V?$vector@HV?$allocator@H@std@@@std@@V?$allocator@V?$vector@HV?$allocator@H@std@@@std@@@2@@std@@AEAV?$vector@HV?$allocator@H@std@@@3@H@Z@4HA DD 020601H
	DD	050023206H
xdata	ENDS
;	COMDAT xdata
xdata	SEGMENT
$ip2state$?combinationSum2@Solution@@QEAA?AV?$vector@V?$vector@HV?$allocator@H@std@@@std@@V?$allocator@V?$vector@HV?$allocator@H@std@@@std@@@2@@std@@AEAV?$vector@HV?$allocator@H@std@@@3@H@Z DB 016H
	DB	011H, 02H
	DB	02H
	DB	')', 02H
	DB	04H
	DB	0a8H
	DB	06H
	DB	0e1H, 02H
	DB	08H
	DB	0b9H, 05H
	DB	0aH
	DB	0baH
	DB	0cH
	DB	'&'
	DB	0eH
	DB	015H, 03H
	DB	010H
	DB	09H, 02H
	DB	02H
	DB	'P'
	DB	0aH
	DB	0cH
	DB	04H
xdata	ENDS
;	COMDAT xdata
xdata	SEGMENT
$stateUnwindMap$?combinationSum2@Solution@@QEAA?AV?$vector@V?$vector@HV?$allocator@H@std@@@std@@V?$allocator@V?$vector@HV?$allocator@H@std@@@std@@@2@@std@@AEAV?$vector@HV?$allocator@H@std@@@3@H@Z DB 010H
	DB	0eH
	DD	imagerel ?dtor$1@?0??combinationSum2@Solution@@QEAA?AV?$vector@V?$vector@HV?$allocator@H@std@@@std@@V?$allocator@V?$vector@HV?$allocator@H@std@@@std@@@2@@std@@AEAV?$vector@HV?$allocator@H@std@@@3@H@Z@4HA
	DB	02aH
	DD	imagerel ??1?$_Tree@V?$_Tset_traits@HU?$less@H@std@@V?$allocator@H@2@$0A@@std@@@std@@QEAA@XZ
	DB	0a1H
	DB	02H
	DB	03aH
	DD	imagerel ??1?$_Alloc_construct_ptr@V?$allocator@U?$_Tree_node@HPEAX@std@@@std@@@std@@QEAA@XZ
	DB	070H
	DB	092H
	DD	imagerel ??1?$set@HU?$less@H@std@@V?$allocator@H@2@@std@@QEAA@XZ
	DB	0a1H
	DB	02H
	DB	03aH
	DD	imagerel ??1?$_Tree@V?$_Tset_traits@V?$vector@HV?$allocator@H@std@@@std@@U?$less@V?$vector@HV?$allocator@H@std@@@std@@@2@V?$allocator@V?$vector@HV?$allocator@H@std@@@std@@@2@$0A@@std@@@std@@QEAA@XZ
	DB	061H
	DB	02H
	DB	03aH
	DD	imagerel ??1?$_Alloc_construct_ptr@V?$allocator@U?$_Tree_node@V?$vector@HV?$allocator@H@std@@@std@@PEAX@std@@@std@@@std@@QEAA@XZ
	DB	070H
	DB	06aH
	DD	imagerel ??1?$_Tree_temp_node_alloc@V?$allocator@U?$_Tree_node@V?$vector@HV?$allocator@H@std@@@std@@PEAX@std@@@std@@@std@@QEAA@XZ
	DB	070H
	DB	0d2H
	DD	imagerel ??1?$set@V?$vector@HV?$allocator@H@std@@@std@@U?$less@V?$vector@HV?$allocator@H@std@@@std@@@2@V?$allocator@V?$vector@HV?$allocator@H@std@@@std@@@2@@std@@QEAA@XZ
	DB	061H
	DB	02H
xdata	ENDS
;	COMDAT xdata
xdata	SEGMENT
$cppxdata$?combinationSum2@Solution@@QEAA?AV?$vector@V?$vector@HV?$allocator@H@std@@@std@@V?$allocator@V?$vector@HV?$allocator@H@std@@@std@@@2@@std@@AEAV?$vector@HV?$allocator@H@std@@@3@H@Z DB 028H
	DD	imagerel $stateUnwindMap$?combinationSum2@Solution@@QEAA?AV?$vector@V?$vector@HV?$allocator@H@std@@@std@@V?$allocator@V?$vector@HV?$allocator@H@std@@@std@@@2@@std@@AEAV?$vector@HV?$allocator@H@std@@@3@H@Z
	DD	imagerel $ip2state$?combinationSum2@Solution@@QEAA?AV?$vector@V?$vector@HV?$allocator@H@std@@@std@@V?$allocator@V?$vector@HV?$allocator@H@std@@@std@@@2@@std@@AEAV?$vector@HV?$allocator@H@std@@@3@H@Z
xdata	ENDS
;	COMDAT xdata
xdata	SEGMENT
$unwind$?combinationSum2@Solution@@QEAA?AV?$vector@V?$vector@HV?$allocator@H@std@@@std@@V?$allocator@V?$vector@HV?$allocator@H@std@@@std@@@2@@std@@AEAV?$vector@HV?$allocator@H@std@@@3@H@Z DD 0d3219H
	DD	0c6824H
	DD	025341cH
	DD	01a011cH
	DD	0e00ef010H
	DD	0c00ad00cH
	DD	060077008H
	DD	05006H
	DD	imagerel __GSHandlerCheck_EH4
	DD	imagerel $cppxdata$?combinationSum2@Solution@@QEAA?AV?$vector@V?$vector@HV?$allocator@H@std@@@std@@V?$allocator@V?$vector@HV?$allocator@H@std@@@std@@@2@@std@@AEAV?$vector@HV?$allocator@H@std@@@3@H@Z
	DD	0baH
xdata	ENDS
;	COMDAT xdata
xdata	SEGMENT
$ip2state$?dfs@Solution@@QEAAHAEAV?$vector@V?$vector@HV?$allocator@H@std@@@std@@V?$allocator@V?$vector@HV?$allocator@H@std@@@std@@@2@@std@@AEAV?$vector@HV?$allocator@H@std@@@3@HHAEAH@Z DB 0cH
	DB	0f6H
	DB	02H
	DB	0cdH, 02H
	DB	00H
	DB	')', 09H
	DB	02H
	DB	'f'
	DB	00H
	DB	01dH, 04H
	DB	02H
	DB	'f'
	DB	00H
xdata	ENDS
;	COMDAT xdata
xdata	SEGMENT
$stateUnwindMap$?dfs@Solution@@QEAAHAEAV?$vector@V?$vector@HV?$allocator@H@std@@@std@@V?$allocator@V?$vector@HV?$allocator@H@std@@@std@@@2@@std@@AEAV?$vector@HV?$allocator@H@std@@@3@HHAEAH@Z DB 02H
	DB	0aH
	DD	imagerel ??1?$vector@HV?$allocator@H@std@@@std@@QEAA@XZ
	DB	060H
xdata	ENDS
;	COMDAT xdata
xdata	SEGMENT
$cppxdata$?dfs@Solution@@QEAAHAEAV?$vector@V?$vector@HV?$allocator@H@std@@@std@@V?$allocator@V?$vector@HV?$allocator@H@std@@@std@@@2@@std@@AEAV?$vector@HV?$allocator@H@std@@@3@HHAEAH@Z DB 028H
	DD	imagerel $stateUnwindMap$?dfs@Solution@@QEAAHAEAV?$vector@V?$vector@HV?$allocator@H@std@@@std@@V?$allocator@V?$vector@HV?$allocator@H@std@@@std@@@2@@std@@AEAV?$vector@HV?$allocator@H@std@@@3@HHAEAH@Z
	DD	imagerel $ip2state$?dfs@Solution@@QEAAHAEAV?$vector@V?$vector@HV?$allocator@H@std@@@std@@V?$allocator@V?$vector@HV?$allocator@H@std@@@std@@@2@@std@@AEAV?$vector@HV?$allocator@H@std@@@3@HHAEAH@Z
xdata	ENDS
;	COMDAT xdata
xdata	SEGMENT
$unwind$?dfs@Solution@@QEAAHAEAV?$vector@V?$vector@HV?$allocator@H@std@@@std@@V?$allocator@V?$vector@HV?$allocator@H@std@@@std@@@2@@std@@AEAV?$vector@HV?$allocator@H@std@@@3@HHAEAH@Z DD 091411H
	DD	0f00da214H
	DD	0d009e00bH
	DD	07005c007H
	DD	030036004H
	DD	05002H
	DD	imagerel __CxxFrameHandler4
	DD	imagerel $cppxdata$?dfs@Solution@@QEAAHAEAV?$vector@V?$vector@HV?$allocator@H@std@@@std@@V?$allocator@V?$vector@HV?$allocator@H@std@@@std@@@2@@std@@AEAV?$vector@HV?$allocator@H@std@@@3@HHAEAH@Z
xdata	ENDS
;	COMDAT xdata
xdata	SEGMENT
$unwind$??1?$set@HU?$less@H@std@@V?$allocator@H@2@@std@@QEAA@XZ DD 040a01H
	DD	07340aH
	DD	07006320aH
xdata	ENDS
;	COMDAT xdata
xdata	SEGMENT
$unwind$??1?$set@V?$vector@HV?$allocator@H@std@@@std@@U?$less@V?$vector@HV?$allocator@H@std@@@std@@@2@V?$allocator@V?$vector@HV?$allocator@H@std@@@std@@@2@@std@@QEAA@XZ DD 020601H
	DD	030023206H
xdata	ENDS
;	COMDAT xdata
xdata	SEGMENT
$ip2state$main DB 0eH
	DB	0d4H
	DB	02H
	DB	'I', 07H
	DB	04H
	DB	'$'
	DB	08H
	DB	'i', 03H
	DB	0aH
	DB	'z'
	DB	08H
	DB	085H, 04H
	DB	00H
	DB	'L'
	DB	08H
xdata	ENDS
;	COMDAT xdata
xdata	SEGMENT
$stateUnwindMap$main DB 0aH
	DB	0aH
	DD	imagerel ??1?$vector@HV?$allocator@H@std@@@std@@QEAA@XZ
	DB	0a0H
	DB	032H
	DD	imagerel ??1Solution@@QEAA@XZ
	DB	040H
	DB	032H
	DD	imagerel ??1?$vector@V?$vector@HV?$allocator@H@std@@@std@@V?$allocator@V?$vector@HV?$allocator@H@std@@@std@@@2@@std@@QEAA@XZ
	DB	0d0H
	DB	092H
	DD	imagerel ??1?$vector@V?$vector@HV?$allocator@H@std@@@std@@V?$allocator@V?$vector@HV?$allocator@H@std@@@std@@@2@@std@@QEAA@XZ
	DB	0d0H
	DB	032H
	DD	imagerel ??1?$vector@HV?$allocator@H@std@@@std@@QEAA@XZ
	DB	01H
	DB	02H
xdata	ENDS
;	COMDAT xdata
xdata	SEGMENT
$cppxdata$main DB 028H
	DD	imagerel $stateUnwindMap$main
	DD	imagerel $ip2state$main
xdata	ENDS
;	COMDAT xdata
xdata	SEGMENT
$unwind$main DD	0d3219H
	DD	01c7424H
	DD	01b6424H
	DD	01a3424H
	DD	0140124H
	DD	0e016f018H
	DD	0c012d014H
	DD	05010H
	DD	imagerel __GSHandlerCheck_EH4
	DD	imagerel $cppxdata$main
	DD	09aH
xdata	ENDS
;	COMDAT xdata
xdata	SEGMENT
$unwind$??1Solution@@QEAA@XZ DD 020601H
	DD	030023206H
xdata	ENDS
;	COMDAT xdata
xdata	SEGMENT
$unwind$??1?$_Tree@V?$_Tset_traits@V?$vector@HV?$allocator@H@std@@@std@@U?$less@V?$vector@HV?$allocator@H@std@@@std@@@2@V?$allocator@V?$vector@HV?$allocator@H@std@@@std@@@2@$0A@@std@@@std@@QEAA@XZ DD 020601H
	DD	030023206H
xdata	ENDS
;	COMDAT xdata
xdata	SEGMENT
$unwind$??1?$_Tree@V?$_Tset_traits@HU?$less@H@std@@V?$allocator@H@2@$0A@@std@@@std@@QEAA@XZ DD 040a01H
	DD	07340aH
	DD	07006320aH
xdata	ENDS
;	COMDAT xdata
xdata	SEGMENT
$unwind$?erase@?$vector@V?$vector@HV?$allocator@H@std@@@std@@V?$allocator@V?$vector@HV?$allocator@H@std@@@std@@@2@@std@@QEAA?AV?$_Vector_iterator@V?$_Vector_val@U?$_Simple_types@V?$vector@HV?$allocator@H@std@@@std@@@std@@@std@@@2@V?$_Vector_const_iterator@V?$_Vector_val@U?$_Simple_types@V?$vector@HV?$allocator@H@std@@@std@@@std@@@std@@@2@@Z DD 0a1401H
	DD	0e3414H
	DD	0f0103214H
	DD	0d00ce00eH
	DD	07008c00aH
	DD	050066007H
xdata	ENDS
;	COMDAT xdata
xdata	SEGMENT
$unwind$??1?$vector@V?$vector@HV?$allocator@H@std@@@std@@V?$allocator@V?$vector@HV?$allocator@H@std@@@std@@@2@@std@@QEAA@XZ DD 020601H
	DD	030023206H
xdata	ENDS
;	COMDAT xdata
xdata	SEGMENT
$chain$1$?resize@?$vector@HV?$allocator@H@std@@@std@@QEAAX_K@Z DD 021H
	DD	imagerel $LN31
	DD	imagerel $LN31+100
	DD	imagerel $unwind$?resize@?$vector@HV?$allocator@H@std@@@std@@QEAAX_K@Z
xdata	ENDS
;	COMDAT xdata
xdata	SEGMENT
$chain$0$?resize@?$vector@HV?$allocator@H@std@@@std@@QEAAX_K@Z DD 020521H
	DD	073405H
	DD	imagerel $LN31
	DD	imagerel $LN31+100
	DD	imagerel $unwind$?resize@?$vector@HV?$allocator@H@std@@@std@@QEAAX_K@Z
xdata	ENDS
;	COMDAT xdata
xdata	SEGMENT
$unwind$?resize@?$vector@HV?$allocator@H@std@@@std@@QEAAX_K@Z DD 040a01H
	DD	08640aH
	DD	07006320aH
xdata	ENDS
;	COMDAT xdata
xdata	SEGMENT
$unwind$??4?$vector@HV?$allocator@H@std@@@std@@QEAAAEAV01@V?$initializer_list@H@1@@Z DD 086e01H
	DD	0ce46eH
	DD	0f007320bH
	DD	060047005H
	DD	030025003H
xdata	ENDS
;	COMDAT xdata
xdata	SEGMENT
$unwind$??1?$vector@HV?$allocator@H@std@@@std@@QEAA@XZ DD 020601H
	DD	030023206H
xdata	ENDS
;	COMDAT xdata
xdata	SEGMENT
$chain$2$??4?$vector@HV?$allocator@H@std@@@std@@QEAAAEAV01@$$QEAV01@@Z DD 020021H
	DD	086400H
	DD	imagerel $LN37
	DD	imagerel $LN37+24
	DD	imagerel $unwind$??4?$vector@HV?$allocator@H@std@@@std@@QEAAAEAV01@$$QEAV01@@Z
xdata	ENDS
;	COMDAT xdata
xdata	SEGMENT
$chain$1$??4?$vector@HV?$allocator@H@std@@@std@@QEAAAEAV01@$$QEAV01@@Z DD 021H
	DD	imagerel $LN37
	DD	imagerel $LN37+24
	DD	imagerel $unwind$??4?$vector@HV?$allocator@H@std@@@std@@QEAAAEAV01@$$QEAV01@@Z
xdata	ENDS
;	COMDAT xdata
xdata	SEGMENT
$chain$0$??4?$vector@HV?$allocator@H@std@@@std@@QEAAAEAV01@$$QEAV01@@Z DD 020521H
	DD	086405H
	DD	imagerel $LN37
	DD	imagerel $LN37+24
	DD	imagerel $unwind$??4?$vector@HV?$allocator@H@std@@@std@@QEAAAEAV01@$$QEAV01@@Z
xdata	ENDS
;	COMDAT xdata
xdata	SEGMENT
$unwind$??4?$vector@HV?$allocator@H@std@@@std@@QEAAAEAV01@$$QEAV01@@Z DD 040a01H
	DD	09340aH
	DD	07006320aH
xdata	ENDS
;	COMDAT xdata
xdata	SEGMENT
$chain$1$??0?$vector@HV?$allocator@H@std@@@std@@QEAA@AEBV01@@Z DD 021H
	DD	imagerel $LN62
	DD	imagerel $LN62+60
	DD	imagerel $unwind$??0?$vector@HV?$allocator@H@std@@@std@@QEAA@AEBV01@@Z
xdata	ENDS
;	COMDAT xdata
xdata	SEGMENT
$chain$0$??0?$vector@HV?$allocator@H@std@@@std@@QEAA@AEBV01@@Z DD 020521H
	DD	087405H
	DD	imagerel $LN62
	DD	imagerel $LN62+60
	DD	imagerel $unwind$??0?$vector@HV?$allocator@H@std@@@std@@QEAA@AEBV01@@Z
xdata	ENDS
;	COMDAT xdata
xdata	SEGMENT
$unwind$??0?$vector@HV?$allocator@H@std@@@std@@QEAA@AEBV01@@Z DD 040a01H
	DD	09340aH
	DD	06006320aH
xdata	ENDS
;	COMDAT xdata
xdata	SEGMENT
$unwind$??0?$vector@HV?$allocator@H@std@@@std@@QEAA@_KAEBHAEBV?$allocator@H@1@@Z DD 081501H
	DD	097415H
	DD	086415H
	DD	073415H
	DD	0e0113215H
xdata	ENDS
;	COMDAT xdata
xdata	SEGMENT
$ip2state$??1sentry@?$basic_ostream@DU?$char_traits@D@std@@@std@@QEAA@XZ DB 02H
	DB	'h'
	DB	02H
xdata	ENDS
;	COMDAT xdata
xdata	SEGMENT
$stateUnwindMap$??1sentry@?$basic_ostream@DU?$char_traits@D@std@@@std@@QEAA@XZ DB 02H
	DB	0eH
	DD	imagerel __imp___std_terminate
xdata	ENDS
;	COMDAT xdata
xdata	SEGMENT
$cppxdata$??1sentry@?$basic_ostream@DU?$char_traits@D@std@@@std@@QEAA@XZ DB 068H
	DD	imagerel $stateUnwindMap$??1sentry@?$basic_ostream@DU?$char_traits@D@std@@@std@@QEAA@XZ
	DD	imagerel $ip2state$??1sentry@?$basic_ostream@DU?$char_traits@D@std@@@std@@QEAA@XZ
xdata	ENDS
;	COMDAT xdata
xdata	SEGMENT
$unwind$??1sentry@?$basic_ostream@DU?$char_traits@D@std@@@std@@QEAA@XZ DD 020619H
	DD	030023206H
	DD	imagerel __CxxFrameHandler4
	DD	imagerel $cppxdata$??1sentry@?$basic_ostream@DU?$char_traits@D@std@@@std@@QEAA@XZ
xdata	ENDS
;	COMDAT xdata
xdata	SEGMENT
$ip2state$??0sentry@?$basic_ostream@DU?$char_traits@D@std@@@std@@QEAA@AEAV12@@Z DB 04H
	DB	'X'
	DB	00H
	DB	'\'
	DB	02H
xdata	ENDS
;	COMDAT xdata
xdata	SEGMENT
$stateUnwindMap$??0sentry@?$basic_ostream@DU?$char_traits@D@std@@@std@@QEAA@AEAV12@@Z DB 02H
	DB	0cH
	DD	imagerel ??1_Sentry_base@?$basic_ostream@DU?$char_traits@D@std@@@std@@QEAA@XZ
	DB	060H
xdata	ENDS
;	COMDAT xdata
xdata	SEGMENT
$cppxdata$??0sentry@?$basic_ostream@DU?$char_traits@D@std@@@std@@QEAA@AEAV12@@Z DB 028H
	DD	imagerel $stateUnwindMap$??0sentry@?$basic_ostream@DU?$char_traits@D@std@@@std@@QEAA@AEAV12@@Z
	DD	imagerel $ip2state$??0sentry@?$basic_ostream@DU?$char_traits@D@std@@@std@@QEAA@AEAV12@@Z
xdata	ENDS
;	COMDAT xdata
xdata	SEGMENT
$unwind$??0sentry@?$basic_ostream@DU?$char_traits@D@std@@@std@@QEAA@AEAV12@@Z DD 040f11H
	DD	07340fH
	DD	0700b320fH
	DD	imagerel __CxxFrameHandler4
	DD	imagerel $cppxdata$??0sentry@?$basic_ostream@DU?$char_traits@D@std@@@std@@QEAA@AEAV12@@Z
xdata	ENDS
;	COMDAT xdata
xdata	SEGMENT
$unwind$?_Tidy@?$vector@V?$vector@HV?$allocator@H@std@@@std@@V?$allocator@V?$vector@HV?$allocator@H@std@@@std@@@2@@std@@AEAAXXZ DD 020601H
	DD	030023206H
xdata	ENDS
;	COMDAT xdata
xdata	SEGMENT
$unwind$?_Tidy@?$vector@HV?$allocator@H@std@@@std@@AEAAXXZ DD 020601H
	DD	030023206H
xdata	ENDS
;	COMDAT xdata
xdata	SEGMENT
$ip2state$??1_Sentry_base@?$basic_ostream@DU?$char_traits@D@std@@@std@@QEAA@XZ DB 02H
	DB	'6'
	DB	00H
xdata	ENDS
;	COMDAT xdata
xdata	SEGMENT
$cppxdata$??1_Sentry_base@?$basic_ostream@DU?$char_traits@D@std@@@std@@QEAA@XZ DB 060H
	DD	imagerel $ip2state$??1_Sentry_base@?$basic_ostream@DU?$char_traits@D@std@@@std@@QEAA@XZ
xdata	ENDS
;	COMDAT xdata
xdata	SEGMENT
$unwind$??1_Sentry_base@?$basic_ostream@DU?$char_traits@D@std@@@std@@QEAA@XZ DD 010419H
	DD	04204H
	DD	imagerel __CxxFrameHandler4
	DD	imagerel $cppxdata$??1_Sentry_base@?$basic_ostream@DU?$char_traits@D@std@@@std@@QEAA@XZ
xdata	ENDS
;	COMDAT xdata
xdata	SEGMENT
$unwind$??0_Sentry_base@?$basic_ostream@DU?$char_traits@D@std@@@std@@QEAA@AEAV12@@Z DD 020601H
	DD	030023206H
xdata	ENDS
;	COMDAT xdata
xdata	SEGMENT
$unwind$?deallocate@?$allocator@V?$vector@HV?$allocator@H@std@@@std@@@std@@QEAAXQEAV?$vector@HV?$allocator@H@std@@@2@_K@Z DD 010401H
	DD	04204H
xdata	ENDS
;	COMDAT xdata
xdata	SEGMENT
$unwind$?deallocate@?$allocator@H@std@@QEAAXQEAH_K@Z DD 010401H
	DD	04204H
xdata	ENDS
;	COMDAT xdata
xdata	SEGMENT
$ip2state$??$?0V?$_Vector_iterator@V?$_Vector_val@U?$_Simple_types@H@std@@@std@@@std@@@?$set@HU?$less@H@std@@V?$allocator@H@2@@std@@QEAA@V?$_Vector_iterator@V?$_Vector_val@U?$_Simple_types@H@std@@@std@@@1@0@Z DB 06H
	DB	'l'
	DB	00H
	DB	0feH
	DB	04H
	DB	0d0H
	DB	02H
xdata	ENDS
;	COMDAT xdata
xdata	SEGMENT
$stateUnwindMap$??$?0V?$_Vector_iterator@V?$_Vector_val@U?$_Simple_types@H@std@@@std@@@std@@@?$set@HU?$less@H@std@@V?$allocator@H@2@@std@@QEAA@V?$_Vector_iterator@V?$_Vector_val@U?$_Simple_types@H@std@@@std@@@1@0@Z DB 04H
	DB	0cH
	DD	imagerel ??1?$_Tree@V?$_Tset_traits@HU?$less@H@std@@V?$allocator@H@2@$0A@@std@@@std@@QEAA@XZ
	DB	080H
	DB	032H
	DD	imagerel ??1?$_Alloc_construct_ptr@V?$allocator@U?$_Tree_node@HPEAX@std@@@std@@@std@@QEAA@XZ
	DB	060H
xdata	ENDS
;	COMDAT xdata
xdata	SEGMENT
$cppxdata$??$?0V?$_Vector_iterator@V?$_Vector_val@U?$_Simple_types@H@std@@@std@@@std@@@?$set@HU?$less@H@std@@V?$allocator@H@2@@std@@QEAA@V?$_Vector_iterator@V?$_Vector_val@U?$_Simple_types@H@std@@@std@@@1@0@Z DB 028H
	DD	imagerel $stateUnwindMap$??$?0V?$_Vector_iterator@V?$_Vector_val@U?$_Simple_types@H@std@@@std@@@std@@@?$set@HU?$less@H@std@@V?$allocator@H@2@@std@@QEAA@V?$_Vector_iterator@V?$_Vector_val@U?$_Simple_types@H@std@@@std@@@1@0@Z
	DD	imagerel $ip2state$??$?0V?$_Vector_iterator@V?$_Vector_val@U?$_Simple_types@H@std@@@std@@@std@@@?$set@HU?$less@H@std@@V?$allocator@H@2@@std@@QEAA@V?$_Vector_iterator@V?$_Vector_val@U?$_Simple_types@H@std@@@std@@@1@0@Z
xdata	ENDS
;	COMDAT xdata
xdata	SEGMENT
$unwind$??$?0V?$_Vector_iterator@V?$_Vector_val@U?$_Simple_types@H@std@@@std@@@std@@@?$set@HU?$less@H@std@@V?$allocator@H@2@@std@@QEAA@V?$_Vector_iterator@V?$_Vector_val@U?$_Simple_types@H@std@@@std@@@1@0@Z DD 0a1911H
	DD	0185419H
	DD	0173419H
	DD	0f012f219H
	DD	0c00ee010H
	DD	0600b700cH
	DD	imagerel __CxxFrameHandler4
	DD	imagerel $cppxdata$??$?0V?$_Vector_iterator@V?$_Vector_val@U?$_Simple_types@H@std@@@std@@@std@@@?$set@HU?$less@H@std@@V?$allocator@H@2@@std@@QEAA@V?$_Vector_iterator@V?$_Vector_val@U?$_Simple_types@H@std@@@std@@@1@0@Z
xdata	ENDS
;	COMDAT xdata
xdata	SEGMENT
$unwind$??$assign@V?$_Tree_const_iterator@V?$_Tree_val@U?$_Tree_simple_types@H@std@@@std@@@std@@$0A@@?$vector@HV?$allocator@H@std@@@std@@QEAAXV?$_Tree_const_iterator@V?$_Tree_val@U?$_Tree_simple_types@H@std@@@std@@@1@0@Z DD 011319H
	DD	06204H
	DD	imagerel __GSHandlerCheck
	DD	020H
xdata	ENDS
;	COMDAT xdata
xdata	SEGMENT
$ip2state$??$?0V?$_Vector_iterator@V?$_Vector_val@U?$_Simple_types@V?$vector@HV?$allocator@H@std@@@std@@@std@@@std@@@std@@@?$set@V?$vector@HV?$allocator@H@std@@@std@@U?$less@V?$vector@HV?$allocator@H@std@@@std@@@2@V?$allocator@V?$vector@HV?$allocator@H@std@@@std@@@2@@std@@QEAA@V?$_Vector_iterator@V?$_Vector_val@U?$_Simple_types@V?$vector@HV?$allocator@H@std@@@std@@@std@@@std@@@1@0@Z DB 08H
	DB	'v'
	DB	00H
	DB	0fcH
	DB	04H
	DB	'('
	DB	06H
	DB	0ceH
	DB	02H
xdata	ENDS
;	COMDAT xdata
xdata	SEGMENT
$stateUnwindMap$??$?0V?$_Vector_iterator@V?$_Vector_val@U?$_Simple_types@V?$vector@HV?$allocator@H@std@@@std@@@std@@@std@@@std@@@?$set@V?$vector@HV?$allocator@H@std@@@std@@U?$less@V?$vector@HV?$allocator@H@std@@@std@@@2@V?$allocator@V?$vector@HV?$allocator@H@std@@@std@@@2@@std@@QEAA@V?$_Vector_iterator@V?$_Vector_val@U?$_Simple_types@V?$vector@HV?$allocator@H@std@@@std@@@std@@@std@@@1@0@Z DB 06H
	DB	0cH
	DD	imagerel ??1?$_Tree@V?$_Tset_traits@V?$vector@HV?$allocator@H@std@@@std@@U?$less@V?$vector@HV?$allocator@H@std@@@std@@@2@V?$allocator@V?$vector@HV?$allocator@H@std@@@std@@@2@$0A@@std@@@std@@QEAA@XZ
	DB	080H
	DB	032H
	DD	imagerel ??1?$_Alloc_construct_ptr@V?$allocator@U?$_Tree_node@V?$vector@HV?$allocator@H@std@@@std@@PEAX@std@@@std@@@std@@QEAA@XZ
	DB	040H
	DB	062H
	DD	imagerel ??1?$_Tree_temp_node_alloc@V?$allocator@U?$_Tree_node@V?$vector@HV?$allocator@H@std@@@std@@PEAX@std@@@std@@@std@@QEAA@XZ
	DB	040H
xdata	ENDS
;	COMDAT xdata
xdata	SEGMENT
$cppxdata$??$?0V?$_Vector_iterator@V?$_Vector_val@U?$_Simple_types@V?$vector@HV?$allocator@H@std@@@std@@@std@@@std@@@std@@@?$set@V?$vector@HV?$allocator@H@std@@@std@@U?$less@V?$vector@HV?$allocator@H@std@@@std@@@2@V?$allocator@V?$vector@HV?$allocator@H@std@@@std@@@2@@std@@QEAA@V?$_Vector_iterator@V?$_Vector_val@U?$_Simple_types@V?$vector@HV?$allocator@H@std@@@std@@@std@@@std@@@1@0@Z DB 028H
	DD	imagerel $stateUnwindMap$??$?0V?$_Vector_iterator@V?$_Vector_val@U?$_Simple_types@V?$vector@HV?$allocator@H@std@@@std@@@std@@@std@@@std@@@?$set@V?$vector@HV?$allocator@H@std@@@std@@U?$less@V?$vector@HV?$allocator@H@std@@@std@@@2@V?$allocator@V?$vector@HV?$allocator@H@std@@@std@@@2@@std@@QEAA@V?$_Vector_iterator@V?$_Vector_val@U?$_Simple_types@V?$vector@HV?$allocator@H@std@@@std@@@std@@@std@@@1@0@Z
	DD	imagerel $ip2state$??$?0V?$_Vector_iterator@V?$_Vector_val@U?$_Simple_types@V?$vector@HV?$allocator@H@std@@@std@@@std@@@std@@@std@@@?$set@V?$vector@HV?$allocator@H@std@@@std@@U?$less@V?$vector@HV?$allocator@H@std@@@std@@@2@V?$allocator@V?$vector@HV?$allocator@H@std@@@std@@@2@@std@@QEAA@V?$_Vector_iterator@V?$_Vector_val@U?$_Simple_types@V?$vector@HV?$allocator@H@std@@@std@@@std@@@std@@@1@0@Z
xdata	ENDS
;	COMDAT xdata
xdata	SEGMENT
$unwind$??$?0V?$_Vector_iterator@V?$_Vector_val@U?$_Simple_types@V?$vector@HV?$allocator@H@std@@@std@@@std@@@std@@@std@@@?$set@V?$vector@HV?$allocator@H@std@@@std@@U?$less@V?$vector@HV?$allocator@H@std@@@std@@@2@V?$allocator@V?$vector@HV?$allocator@H@std@@@std@@@2@@std@@QEAA@V?$_Vector_iterator@V?$_Vector_val@U?$_Simple_types@V?$vector@HV?$allocator@H@std@@@std@@@std@@@std@@@1@0@Z DD 0c1f11H
	DD	019641fH
	DD	018541fH
	DD	017341fH
	DD	0f018f21fH
	DD	0d014e016H
	DD	07010c012H
	DD	imagerel __CxxFrameHandler4
	DD	imagerel $cppxdata$??$?0V?$_Vector_iterator@V?$_Vector_val@U?$_Simple_types@V?$vector@HV?$allocator@H@std@@@std@@@std@@@std@@@std@@@?$set@V?$vector@HV?$allocator@H@std@@@std@@U?$less@V?$vector@HV?$allocator@H@std@@@std@@@2@V?$allocator@V?$vector@HV?$allocator@H@std@@@std@@@2@@std@@QEAA@V?$_Vector_iterator@V?$_Vector_val@U?$_Simple_types@V?$vector@HV?$allocator@H@std@@@std@@@std@@@std@@@1@0@Z
xdata	ENDS
;	COMDAT xdata
xdata	SEGMENT
$unwind$??$assign@V?$_Tree_const_iterator@V?$_Tree_val@U?$_Tree_simple_types@V?$vector@HV?$allocator@H@std@@@std@@@std@@@std@@@std@@$0A@@?$vector@V?$vector@HV?$allocator@H@std@@@std@@V?$allocator@V?$vector@HV?$allocator@H@std@@@std@@@2@@std@@QEAAXV?$_Tree_const_iterator@V?$_Tree_val@U?$_Tree_simple_types@V?$vector@HV?$allocator@H@std@@@std@@@std@@@std@@@1@0@Z DD 011319H
	DD	06204H
	DD	imagerel __GSHandlerCheck
	DD	020H
xdata	ENDS
;	COMDAT xdata
xdata	SEGMENT
$chain$2$??$find@V?$_Vector_iterator@V?$_Vector_val@U?$_Simple_types@V?$vector@HV?$allocator@H@std@@@std@@@std@@@std@@@std@@V?$vector@HV?$allocator@H@std@@@2@@std@@YA?AV?$_Vector_iterator@V?$_Vector_val@U?$_Simple_types@V?$vector@HV?$allocator@H@std@@@std@@@std@@@std@@@0@V10@V10@AEBV?$vector@HV?$allocator@H@std@@@0@@Z DD 021H
	DD	imagerel $LN45
	DD	imagerel $LN45+22
	DD	imagerel $unwind$??$find@V?$_Vector_iterator@V?$_Vector_val@U?$_Simple_types@V?$vector@HV?$allocator@H@std@@@std@@@std@@@std@@@std@@V?$vector@HV?$allocator@H@std@@@2@@std@@YA?AV?$_Vector_iterator@V?$_Vector_val@U?$_Simple_types@V?$vector@HV?$allocator@H@std@@@std@@@std@@@std@@@0@V10@V10@AEBV?$vector@HV?$allocator@H@std@@@0@@Z
xdata	ENDS
;	COMDAT xdata
xdata	SEGMENT
$chain$1$??$find@V?$_Vector_iterator@V?$_Vector_val@U?$_Simple_types@V?$vector@HV?$allocator@H@std@@@std@@@std@@@std@@@std@@V?$vector@HV?$allocator@H@std@@@2@@std@@YA?AV?$_Vector_iterator@V?$_Vector_val@U?$_Simple_types@V?$vector@HV?$allocator@H@std@@@std@@@std@@@std@@@0@V10@V10@AEBV?$vector@HV?$allocator@H@std@@@0@@Z DD 040e21H
	DD	0ae40eH
	DD	095405H
	DD	imagerel $LN45
	DD	imagerel $LN45+22
	DD	imagerel $unwind$??$find@V?$_Vector_iterator@V?$_Vector_val@U?$_Simple_types@V?$vector@HV?$allocator@H@std@@@std@@@std@@@std@@@std@@V?$vector@HV?$allocator@H@std@@@2@@std@@YA?AV?$_Vector_iterator@V?$_Vector_val@U?$_Simple_types@V?$vector@HV?$allocator@H@std@@@std@@@std@@@std@@@0@V10@V10@AEBV?$vector@HV?$allocator@H@std@@@0@@Z
xdata	ENDS
;	COMDAT xdata
xdata	SEGMENT
$unwind$??$find@V?$_Vector_iterator@V?$_Vector_val@U?$_Simple_types@V?$vector@HV?$allocator@H@std@@@std@@@std@@@std@@@std@@V?$vector@HV?$allocator@H@std@@@2@@std@@YA?AV?$_Vector_iterator@V?$_Vector_val@U?$_Simple_types@V?$vector@HV?$allocator@H@std@@@std@@@std@@@std@@@0@V10@V10@AEBV?$vector@HV?$allocator@H@std@@@0@@Z DD 040801H
	DD	070043208H
	DD	030026003H
xdata	ENDS
;	COMDAT xdata
xdata	SEGMENT
$unwind$?catch$17@?0???$?6U?$char_traits@D@std@@@std@@YAAEAV?$basic_ostream@DU?$char_traits@D@std@@@0@AEAV10@PEBD@Z@4HA DD 020a01H
	DD	05006320aH
xdata	ENDS
;	COMDAT xdata
xdata	SEGMENT
$ip2state$??$?6U?$char_traits@D@std@@@std@@YAAEAV?$basic_ostream@DU?$char_traits@D@std@@@0@AEAV10@PEBD@Z DB 0cH
	DB	09cH
	DB	00H
	DB	'\'
	DB	02H
	DB	0b4H
	DB	06H
	DB	0eeH
	DB	04H
	DB	'L'
	DB	00H
	DB	'P'
	DB	0aH
xdata	ENDS
;	COMDAT xdata
xdata	SEGMENT
$handlerMap$??$?6U?$char_traits@D@std@@@std@@YAAEAV?$basic_ostream@DU?$char_traits@D@std@@@0@AEAV10@PEBD@Z DB 02H
	DB	011H
	DB	080H
	DD	imagerel ?catch$17@?0???$?6U?$char_traits@D@std@@@std@@YAAEAV?$basic_ostream@DU?$char_traits@D@std@@@0@AEAV10@PEBD@Z@4HA
	DB	'=', 05H
xdata	ENDS
;	COMDAT xdata
xdata	SEGMENT
$tryMap$??$?6U?$char_traits@D@std@@@std@@YAAEAV?$basic_ostream@DU?$char_traits@D@std@@@0@AEAV10@PEBD@Z DB 02H
	DB	04H
	DB	04H
	DB	06H
	DD	imagerel $handlerMap$??$?6U?$char_traits@D@std@@@std@@YAAEAV?$basic_ostream@DU?$char_traits@D@std@@@0@AEAV10@PEBD@Z
xdata	ENDS
;	COMDAT xdata
xdata	SEGMENT
$stateUnwindMap$??$?6U?$char_traits@D@std@@@std@@YAAEAV?$basic_ostream@DU?$char_traits@D@std@@@0@AEAV10@PEBD@Z DB 0aH
	DB	0aH
	DD	imagerel ??1_Sentry_base@?$basic_ostream@DU?$char_traits@D@std@@@std@@QEAA@XZ
	DB	040H
	DB	03aH
	DD	imagerel ??1sentry@?$basic_ostream@DU?$char_traits@D@std@@@std@@QEAA@XZ
	DB	040H
	DB	030H
	DB	038H
	DB	07eH
	DD	imagerel __imp___std_terminate
xdata	ENDS
;	COMDAT xdata
xdata	SEGMENT
$cppxdata$??$?6U?$char_traits@D@std@@@std@@YAAEAV?$basic_ostream@DU?$char_traits@D@std@@@0@AEAV10@PEBD@Z DB 038H
	DD	imagerel $stateUnwindMap$??$?6U?$char_traits@D@std@@@std@@YAAEAV?$basic_ostream@DU?$char_traits@D@std@@@0@AEAV10@PEBD@Z
	DD	imagerel $tryMap$??$?6U?$char_traits@D@std@@@std@@YAAEAV?$basic_ostream@DU?$char_traits@D@std@@@0@AEAV10@PEBD@Z
	DD	imagerel $ip2state$??$?6U?$char_traits@D@std@@@std@@YAAEAV?$basic_ostream@DU?$char_traits@D@std@@@0@AEAV10@PEBD@Z
xdata	ENDS
;	COMDAT xdata
xdata	SEGMENT
$unwind$??$?6U?$char_traits@D@std@@@std@@YAAEAV?$basic_ostream@DU?$char_traits@D@std@@@0@AEAV10@PEBD@Z DD 061719H
	DD	0c3417H
	DD	0e0135217H
	DD	060107011H
	DD	imagerel __CxxFrameHandler4
	DD	imagerel $cppxdata$??$?6U?$char_traits@D@std@@@std@@YAAEAV?$basic_ostream@DU?$char_traits@D@std@@@0@AEAV10@PEBD@Z
xdata	ENDS
;	COMDAT xdata
xdata	SEGMENT
$unwind$??$endl@DU?$char_traits@D@std@@@std@@YAAEAV?$basic_ostream@DU?$char_traits@D@std@@@0@AEAV10@@Z DD 020601H
	DD	030023206H
xdata	ENDS
;	COMDAT xdata
xdata	SEGMENT
$unwind$??$_Erase_head@V?$allocator@U?$_Tree_node@V?$vector@HV?$allocator@H@std@@@std@@PEAX@std@@@std@@@?$_Tree_val@U?$_Tree_simple_types@V?$vector@HV?$allocator@H@std@@@std@@@std@@@std@@QEAAXAEAV?$allocator@U?$_Tree_node@V?$vector@HV?$allocator@H@std@@@std@@PEAX@std@@@1@@Z DD 020601H
	DD	030023206H
xdata	ENDS
;	COMDAT xdata
xdata	SEGMENT
$unwind$??$_Erase_head@V?$allocator@U?$_Tree_node@HPEAX@std@@@std@@@?$_Tree_val@U?$_Tree_simple_types@H@std@@@std@@QEAAXAEAV?$allocator@U?$_Tree_node@HPEAX@std@@@1@@Z DD 060f01H
	DD	09640fH
	DD	08340fH
	DD	0700b320fH
xdata	ENDS
;	COMDAT xdata
xdata	SEGMENT
$unwind$??$_Move_unchecked@PEAV?$vector@HV?$allocator@H@std@@@std@@PEAV12@@std@@YAPEAV?$vector@HV?$allocator@H@std@@@0@PEAV10@00@Z DD 060c01H
	DD	09340cH
	DD	07008320cH
	DD	050066007H
xdata	ENDS
;	COMDAT xdata
xdata	SEGMENT
$unwind$??$destroy@V?$vector@HV?$allocator@H@std@@@std@@@?$_Default_allocator_traits@V?$allocator@V?$vector@HV?$allocator@H@std@@@std@@@std@@@std@@SAXAEAV?$allocator@V?$vector@HV?$allocator@H@std@@@std@@@1@QEAV?$vector@HV?$allocator@H@std@@@1@@Z DD 020601H
	DD	030023206H
xdata	ENDS
;	COMDAT xdata
xdata	SEGMENT
$chain$1$??$_Resize@U_Value_init_tag@std@@@?$vector@HV?$allocator@H@std@@@std@@AEAAX_KAEBU_Value_init_tag@1@@Z DD 021H
	DD	imagerel $LN29
	DD	imagerel $LN29+100
	DD	imagerel $unwind$??$_Resize@U_Value_init_tag@std@@@?$vector@HV?$allocator@H@std@@@std@@AEAAX_KAEBU_Value_init_tag@1@@Z
xdata	ENDS
;	COMDAT xdata
xdata	SEGMENT
$chain$0$??$_Resize@U_Value_init_tag@std@@@?$vector@HV?$allocator@H@std@@@std@@AEAAX_KAEBU_Value_init_tag@1@@Z DD 020521H
	DD	073405H
	DD	imagerel $LN29
	DD	imagerel $LN29+100
	DD	imagerel $unwind$??$_Resize@U_Value_init_tag@std@@@?$vector@HV?$allocator@H@std@@@std@@AEAAX_KAEBU_Value_init_tag@1@@Z
xdata	ENDS
;	COMDAT xdata
xdata	SEGMENT
$unwind$??$_Resize@U_Value_init_tag@std@@@?$vector@HV?$allocator@H@std@@@std@@AEAAX_KAEBU_Value_init_tag@1@@Z DD 040a01H
	DD	08640aH
	DD	07006320aH
xdata	ENDS
;	COMDAT xdata
xdata	SEGMENT
$chain$1$??$_Assign_counted_range@PEBH@?$vector@HV?$allocator@H@std@@@std@@AEAAXPEBH_K@Z DD 021H
	DD	imagerel $LN68
	DD	imagerel $LN68+75
	DD	imagerel $unwind$??$_Assign_counted_range@PEBH@?$vector@HV?$allocator@H@std@@@std@@AEAAXPEBH_K@Z
xdata	ENDS
;	COMDAT xdata
xdata	SEGMENT
$chain$0$??$_Assign_counted_range@PEBH@?$vector@HV?$allocator@H@std@@@std@@AEAAXPEBH_K@Z DD 020521H
	DD	0d6405H
	DD	imagerel $LN68
	DD	imagerel $LN68+75
	DD	imagerel $unwind$??$_Assign_counted_range@PEBH@?$vector@HV?$allocator@H@std@@@std@@AEAAXPEBH_K@Z
xdata	ENDS
;	COMDAT xdata
xdata	SEGMENT
$unwind$??$_Assign_counted_range@PEBH@?$vector@HV?$allocator@H@std@@@std@@AEAAXPEBH_K@Z DD 060c01H
	DD	0f008320cH
	DD	07004e006H
	DD	030025003H
xdata	ENDS
;	COMDAT xdata
xdata	SEGMENT
$chain$1$??$_Construct_n@AEBQEAHAEBQEAH@?$vector@HV?$allocator@H@std@@@std@@AEAAX_KAEBQEAH1@Z DD 021H
	DD	imagerel $LN56
	DD	imagerel $LN56+37
	DD	imagerel $unwind$??$_Construct_n@AEBQEAHAEBQEAH@?$vector@HV?$allocator@H@std@@@std@@AEAAX_KAEBQEAH1@Z
xdata	ENDS
;	COMDAT xdata
xdata	SEGMENT
$chain$0$??$_Construct_n@AEBQEAHAEBQEAH@?$vector@HV?$allocator@H@std@@@std@@AEAAX_KAEBQEAH1@Z DD 020521H
	DD	057405H
	DD	imagerel $LN56
	DD	imagerel $LN56+37
	DD	imagerel $unwind$??$_Construct_n@AEBQEAHAEBQEAH@?$vector@HV?$allocator@H@std@@@std@@AEAAX_KAEBQEAH1@Z
xdata	ENDS
;	COMDAT xdata
xdata	SEGMENT
$unwind$??$_Construct_n@AEBQEAHAEBQEAH@?$vector@HV?$allocator@H@std@@@std@@AEAAX_KAEBQEAH1@Z DD 040d01H
	DD	0e009520dH
	DD	030066007H
xdata	ENDS
;	COMDAT xdata
xdata	SEGMENT
$unwind$??$_Construct_n@AEBH@?$vector@HV?$allocator@H@std@@@std@@AEAAX_KAEBH@Z DD 081501H
	DD	097415H
	DD	086415H
	DD	073415H
	DD	0e0113215H
xdata	ENDS
;	COMDAT xdata
xdata	SEGMENT
$chain$2$??$_Destroy_range@V?$allocator@V?$vector@HV?$allocator@H@std@@@std@@@std@@@std@@YAXPEAV?$vector@HV?$allocator@H@std@@@0@QEAV10@AEAV?$allocator@V?$vector@HV?$allocator@H@std@@@std@@@0@@Z DD 020021H
	DD	076400H
	DD	imagerel $LN52
	DD	imagerel $LN52+15
	DD	imagerel $unwind$??$_Destroy_range@V?$allocator@V?$vector@HV?$allocator@H@std@@@std@@@std@@@std@@YAXPEAV?$vector@HV?$allocator@H@std@@@0@QEAV10@AEAV?$allocator@V?$vector@HV?$allocator@H@std@@@std@@@0@@Z
xdata	ENDS
;	COMDAT xdata
xdata	SEGMENT
$chain$1$??$_Destroy_range@V?$allocator@V?$vector@HV?$allocator@H@std@@@std@@@std@@@std@@YAXPEAV?$vector@HV?$allocator@H@std@@@0@QEAV10@AEAV?$allocator@V?$vector@HV?$allocator@H@std@@@std@@@0@@Z DD 021H
	DD	imagerel $LN52
	DD	imagerel $LN52+15
	DD	imagerel $unwind$??$_Destroy_range@V?$allocator@V?$vector@HV?$allocator@H@std@@@std@@@std@@@std@@YAXPEAV?$vector@HV?$allocator@H@std@@@0@QEAV10@AEAV?$allocator@V?$vector@HV?$allocator@H@std@@@std@@@0@@Z
xdata	ENDS
;	COMDAT xdata
xdata	SEGMENT
$chain$0$??$_Destroy_range@V?$allocator@V?$vector@HV?$allocator@H@std@@@std@@@std@@@std@@YAXPEAV?$vector@HV?$allocator@H@std@@@0@QEAV10@AEAV?$allocator@V?$vector@HV?$allocator@H@std@@@std@@@0@@Z DD 020521H
	DD	076405H
	DD	imagerel $LN52
	DD	imagerel $LN52+15
	DD	imagerel $unwind$??$_Destroy_range@V?$allocator@V?$vector@HV?$allocator@H@std@@@std@@@std@@@std@@YAXPEAV?$vector@HV?$allocator@H@std@@@0@QEAV10@AEAV?$allocator@V?$vector@HV?$allocator@H@std@@@std@@@0@@Z
xdata	ENDS
;	COMDAT xdata
xdata	SEGMENT
$unwind$??$_Destroy_range@V?$allocator@V?$vector@HV?$allocator@H@std@@@std@@@std@@@std@@YAXPEAV?$vector@HV?$allocator@H@std@@@0@QEAV10@AEAV?$allocator@V?$vector@HV?$allocator@H@std@@@std@@@0@@Z DD 040f01H
	DD	08340fH
	DD	0700b320fH
xdata	ENDS
;	COMDAT xdata
xdata	SEGMENT
$unwind$??$_Deallocate@$0BA@$0A@@std@@YAXPEAX_K@Z DD 010401H
	DD	04204H
xdata	ENDS
;	COMDAT xdata
xdata	SEGMENT
$unwind$??_G?$vector@HV?$allocator@H@std@@@std@@QEAAPEAXI@Z DD 020601H
	DD	030023206H
xdata	ENDS
;	COMDAT xdata
xdata	SEGMENT
$unwind$??1?$_Tidy_guard@V?$vector@HV?$allocator@H@std@@@std@@@std@@QEAA@XZ DD 020601H
	DD	030023206H
xdata	ENDS
;	COMDAT xdata
xdata	SEGMENT
$unwind$??0?$_Tree@V?$_Tset_traits@V?$vector@HV?$allocator@H@std@@@std@@U?$less@V?$vector@HV?$allocator@H@std@@@std@@@2@V?$allocator@V?$vector@HV?$allocator@H@std@@@std@@@2@$0A@@std@@@std@@QEAA@AEBU?$less@V?$vector@HV?$allocator@H@std@@@std@@@1@@Z DD 020601H
	DD	030023206H
xdata	ENDS
;	COMDAT xdata
xdata	SEGMENT
$unwind$??0?$_Tree@V?$_Tset_traits@HU?$less@H@std@@V?$allocator@H@2@$0A@@std@@@std@@QEAA@AEBU?$less@H@1@@Z DD 020601H
	DD	030023206H
xdata	ENDS
;	COMDAT xdata
xdata	SEGMENT
$unwind$?_Buy_nonzero@?$vector@HV?$allocator@H@std@@@std@@AEAAX_K@Z DD 010401H
	DD	04204H
xdata	ENDS
;	COMDAT xdata
xdata	SEGMENT
$unwind$?_Clear_and_reserve_geometric@?$vector@HV?$allocator@H@std@@@std@@AEAAX_K@Z DD 040a01H
	DD	08340aH
	DD	07006320aH
xdata	ENDS
;	COMDAT xdata
xdata	SEGMENT
$unwind$?_Alloc_sentinel_and_proxy@?$_Tree@V?$_Tset_traits@V?$vector@HV?$allocator@H@std@@@std@@U?$less@V?$vector@HV?$allocator@H@std@@@std@@@2@V?$allocator@V?$vector@HV?$allocator@H@std@@@std@@@2@$0A@@std@@@std@@IEAAXXZ DD 020601H
	DD	030023206H
xdata	ENDS
;	COMDAT xdata
xdata	SEGMENT
$unwind$?_Alloc_sentinel_and_proxy@?$_Tree@V?$_Tset_traits@HU?$less@H@std@@V?$allocator@H@2@$0A@@std@@@std@@IEAAXXZ DD 020601H
	DD	030023206H
xdata	ENDS
;	COMDAT xdata
xdata	SEGMENT
$unwind$?_Xlength@?$vector@HV?$allocator@H@std@@@std@@CAXXZ DD 010401H
	DD	04204H
xdata	ENDS
;	COMDAT xdata
xdata	SEGMENT
$unwind$?_Buy_raw@?$vector@HV?$allocator@H@std@@@std@@AEAAX_K@Z DD 040a01H
	DD	06340aH
	DD	07006320aH
xdata	ENDS
;	COMDAT xdata
xdata	SEGMENT
$unwind$?allocate@?$allocator@H@std@@QEAAPEAH_K@Z DD 010401H
	DD	04204H
xdata	ENDS
;	COMDAT xdata
xdata	SEGMENT
$ip2state$??$insert@V?$_Vector_iterator@V?$_Vector_val@U?$_Simple_types@H@std@@@std@@@std@@@?$_Tree@V?$_Tset_traits@HU?$less@H@std@@V?$allocator@H@2@$0A@@std@@@std@@QEAAXV?$_Vector_iterator@V?$_Vector_val@U?$_Simple_types@H@std@@@std@@@1@0@Z DB 04H
	DB	015H, 02H
	DB	02H
	DB	0c4H
	DB	00H
xdata	ENDS
;	COMDAT xdata
xdata	SEGMENT
$stateUnwindMap$??$insert@V?$_Vector_iterator@V?$_Vector_val@U?$_Simple_types@H@std@@@std@@@std@@@?$_Tree@V?$_Tset_traits@HU?$less@H@std@@V?$allocator@H@2@$0A@@std@@@std@@QEAAXV?$_Vector_iterator@V?$_Vector_val@U?$_Simple_types@H@std@@@std@@@1@0@Z DB 02H
	DB	0aH
	DD	imagerel ??1?$_Alloc_construct_ptr@V?$allocator@U?$_Tree_node@HPEAX@std@@@std@@@std@@QEAA@XZ
	DB	060H
xdata	ENDS
;	COMDAT xdata
xdata	SEGMENT
$cppxdata$??$insert@V?$_Vector_iterator@V?$_Vector_val@U?$_Simple_types@H@std@@@std@@@std@@@?$_Tree@V?$_Tset_traits@HU?$less@H@std@@V?$allocator@H@2@$0A@@std@@@std@@QEAAXV?$_Vector_iterator@V?$_Vector_val@U?$_Simple_types@H@std@@@std@@@1@0@Z DB 028H
	DD	imagerel $stateUnwindMap$??$insert@V?$_Vector_iterator@V?$_Vector_val@U?$_Simple_types@H@std@@@std@@@std@@@?$_Tree@V?$_Tset_traits@HU?$less@H@std@@V?$allocator@H@2@$0A@@std@@@std@@QEAAXV?$_Vector_iterator@V?$_Vector_val@U?$_Simple_types@H@std@@@std@@@1@0@Z
	DD	imagerel $ip2state$??$insert@V?$_Vector_iterator@V?$_Vector_val@U?$_Simple_types@H@std@@@std@@@std@@@?$_Tree@V?$_Tset_traits@HU?$less@H@std@@V?$allocator@H@2@$0A@@std@@@std@@QEAAXV?$_Vector_iterator@V?$_Vector_val@U?$_Simple_types@H@std@@@std@@@1@0@Z
xdata	ENDS
;	COMDAT xdata
xdata	SEGMENT
$unwind$??$insert@V?$_Vector_iterator@V?$_Vector_val@U?$_Simple_types@H@std@@@std@@@std@@@?$_Tree@V?$_Tset_traits@HU?$less@H@std@@V?$allocator@H@2@$0A@@std@@@std@@QEAAXV?$_Vector_iterator@V?$_Vector_val@U?$_Simple_types@H@std@@@std@@@1@0@Z DD 0a1f11H
	DD	016541fH
	DD	015341fH
	DD	0f01bd21fH
	DD	0c017e019H
	DD	060147015H
	DD	imagerel __CxxFrameHandler4
	DD	imagerel $cppxdata$??$insert@V?$_Vector_iterator@V?$_Vector_val@U?$_Simple_types@H@std@@@std@@@std@@@?$_Tree@V?$_Tset_traits@HU?$less@H@std@@V?$allocator@H@2@$0A@@std@@@std@@QEAAXV?$_Vector_iterator@V?$_Vector_val@U?$_Simple_types@H@std@@@std@@@1@0@Z
xdata	ENDS
;	COMDAT xdata
xdata	SEGMENT
$unwind$??$_Assign_counted_range@V?$_Tree_unchecked_const_iterator@V?$_Tree_val@U?$_Tree_simple_types@H@std@@@std@@U_Iterator_base0@2@@std@@@?$vector@HV?$allocator@H@std@@@std@@AEAAXV?$_Tree_unchecked_const_iterator@V?$_Tree_val@U?$_Tree_simple_types@H@std@@@std@@U_Iterator_base0@2@@1@_K@Z DD 061e19H
	DD	0b640fH
	DD	09340fH
	DD	0700b520fH
	DD	imagerel __GSHandlerCheck
	DD	020H
xdata	ENDS
;	COMDAT xdata
xdata	SEGMENT
$ip2state$??$insert@V?$_Vector_iterator@V?$_Vector_val@U?$_Simple_types@V?$vector@HV?$allocator@H@std@@@std@@@std@@@std@@@std@@@?$_Tree@V?$_Tset_traits@V?$vector@HV?$allocator@H@std@@@std@@U?$less@V?$vector@HV?$allocator@H@std@@@std@@@2@V?$allocator@V?$vector@HV?$allocator@H@std@@@std@@@2@$0A@@std@@@std@@QEAAXV?$_Vector_iterator@V?$_Vector_val@U?$_Simple_types@V?$vector@HV?$allocator@H@std@@@std@@@std@@@std@@@1@0@Z DB 06H
	DB	'%', 02H
	DB	02H
	DB	'('
	DB	04H
	DB	0c2H
	DB	00H
xdata	ENDS
;	COMDAT xdata
xdata	SEGMENT
$stateUnwindMap$??$insert@V?$_Vector_iterator@V?$_Vector_val@U?$_Simple_types@V?$vector@HV?$allocator@H@std@@@std@@@std@@@std@@@std@@@?$_Tree@V?$_Tset_traits@V?$vector@HV?$allocator@H@std@@@std@@U?$less@V?$vector@HV?$allocator@H@std@@@std@@@2@V?$allocator@V?$vector@HV?$allocator@H@std@@@std@@@2@$0A@@std@@@std@@QEAAXV?$_Vector_iterator@V?$_Vector_val@U?$_Simple_types@V?$vector@HV?$allocator@H@std@@@std@@@std@@@std@@@1@0@Z DB 04H
	DB	0aH
	DD	imagerel ??1?$_Alloc_construct_ptr@V?$allocator@U?$_Tree_node@V?$vector@HV?$allocator@H@std@@@std@@PEAX@std@@@std@@@std@@QEAA@XZ
	DB	040H
	DB	03aH
	DD	imagerel ??1?$_Tree_temp_node_alloc@V?$allocator@U?$_Tree_node@V?$vector@HV?$allocator@H@std@@@std@@PEAX@std@@@std@@@std@@QEAA@XZ
	DB	040H
xdata	ENDS
;	COMDAT xdata
xdata	SEGMENT
$cppxdata$??$insert@V?$_Vector_iterator@V?$_Vector_val@U?$_Simple_types@V?$vector@HV?$allocator@H@std@@@std@@@std@@@std@@@std@@@?$_Tree@V?$_Tset_traits@V?$vector@HV?$allocator@H@std@@@std@@U?$less@V?$vector@HV?$allocator@H@std@@@std@@@2@V?$allocator@V?$vector@HV?$allocator@H@std@@@std@@@2@$0A@@std@@@std@@QEAAXV?$_Vector_iterator@V?$_Vector_val@U?$_Simple_types@V?$vector@HV?$allocator@H@std@@@std@@@std@@@std@@@1@0@Z DB 028H
	DD	imagerel $stateUnwindMap$??$insert@V?$_Vector_iterator@V?$_Vector_val@U?$_Simple_types@V?$vector@HV?$allocator@H@std@@@std@@@std@@@std@@@std@@@?$_Tree@V?$_Tset_traits@V?$vector@HV?$allocator@H@std@@@std@@U?$less@V?$vector@HV?$allocator@H@std@@@std@@@2@V?$allocator@V?$vector@HV?$allocator@H@std@@@std@@@2@$0A@@std@@@std@@QEAAXV?$_Vector_iterator@V?$_Vector_val@U?$_Simple_types@V?$vector@HV?$allocator@H@std@@@std@@@std@@@std@@@1@0@Z
	DD	imagerel $ip2state$??$insert@V?$_Vector_iterator@V?$_Vector_val@U?$_Simple_types@V?$vector@HV?$allocator@H@std@@@std@@@std@@@std@@@std@@@?$_Tree@V?$_Tset_traits@V?$vector@HV?$allocator@H@std@@@std@@U?$less@V?$vector@HV?$allocator@H@std@@@std@@@2@V?$allocator@V?$vector@HV?$allocator@H@std@@@std@@@2@$0A@@std@@@std@@QEAAXV?$_Vector_iterator@V?$_Vector_val@U?$_Simple_types@V?$vector@HV?$allocator@H@std@@@std@@@std@@@std@@@1@0@Z
xdata	ENDS
;	COMDAT xdata
xdata	SEGMENT
$unwind$??$insert@V?$_Vector_iterator@V?$_Vector_val@U?$_Simple_types@V?$vector@HV?$allocator@H@std@@@std@@@std@@@std@@@std@@@?$_Tree@V?$_Tset_traits@V?$vector@HV?$allocator@H@std@@@std@@U?$less@V?$vector@HV?$allocator@H@std@@@std@@@2@V?$allocator@V?$vector@HV?$allocator@H@std@@@std@@@2@$0A@@std@@@std@@QEAAXV?$_Vector_iterator@V?$_Vector_val@U?$_Simple_types@V?$vector@HV?$allocator@H@std@@@std@@@std@@@std@@@1@0@Z DD 0c2511H
	DD	0176425H
	DD	0165425H
	DD	0153425H
	DD	0f021d225H
	DD	0d01de01fH
	DD	07019c01bH
	DD	imagerel __CxxFrameHandler4
	DD	imagerel $cppxdata$??$insert@V?$_Vector_iterator@V?$_Vector_val@U?$_Simple_types@V?$vector@HV?$allocator@H@std@@@std@@@std@@@std@@@std@@@?$_Tree@V?$_Tset_traits@V?$vector@HV?$allocator@H@std@@@std@@U?$less@V?$vector@HV?$allocator@H@std@@@std@@@2@V?$allocator@V?$vector@HV?$allocator@H@std@@@std@@@2@$0A@@std@@@std@@QEAAXV?$_Vector_iterator@V?$_Vector_val@U?$_Simple_types@V?$vector@HV?$allocator@H@std@@@std@@@std@@@std@@@1@0@Z
xdata	ENDS
;	COMDAT xdata
xdata	SEGMENT
$unwind$??$_Assign_counted_range@V?$_Tree_unchecked_const_iterator@V?$_Tree_val@U?$_Tree_simple_types@V?$vector@HV?$allocator@H@std@@@std@@@std@@@std@@U_Iterator_base0@2@@std@@@?$vector@V?$vector@HV?$allocator@H@std@@@std@@V?$allocator@V?$vector@HV?$allocator@H@std@@@std@@@2@@std@@AEAAXV?$_Tree_unchecked_const_iterator@V?$_Tree_val@U?$_Tree_simple_types@V?$vector@HV?$allocator@H@std@@@std@@@std@@@std@@U_Iterator_base0@2@@1@_K@Z DD 087d01H
	DD	09547dH
	DD	0b340dH
	DD	0e009320dH
	DD	060067007H
xdata	ENDS
;	COMDAT xdata
xdata	SEGMENT
$chain$2$??$_Find_unchecked@PEAV?$vector@HV?$allocator@H@std@@@std@@V12@@std@@YAPEAV?$vector@HV?$allocator@H@std@@@0@PEAV10@QEAV10@AEBV10@@Z DD 021H
	DD	imagerel $LN43
	DD	imagerel $LN43+21
	DD	imagerel $unwind$??$_Find_unchecked@PEAV?$vector@HV?$allocator@H@std@@@std@@V12@@std@@YAPEAV?$vector@HV?$allocator@H@std@@@0@PEAV10@QEAV10@AEBV10@@Z
xdata	ENDS
;	COMDAT xdata
xdata	SEGMENT
$chain$1$??$_Find_unchecked@PEAV?$vector@HV?$allocator@H@std@@@std@@V12@@std@@YAPEAV?$vector@HV?$allocator@H@std@@@0@PEAV10@QEAV10@AEBV10@@Z DD 040d21H
	DD	07740dH
	DD	065405H
	DD	imagerel $LN43
	DD	imagerel $LN43+21
	DD	imagerel $unwind$??$_Find_unchecked@PEAV?$vector@HV?$allocator@H@std@@@std@@V12@@std@@YAPEAV?$vector@HV?$allocator@H@std@@@0@PEAV10@QEAV10@AEBV10@@Z
xdata	ENDS
;	COMDAT xdata
xdata	SEGMENT
$unwind$??$_Find_unchecked@PEAV?$vector@HV?$allocator@H@std@@@std@@V12@@std@@YAPEAV?$vector@HV?$allocator@H@std@@@0@PEAV10@QEAV10@AEBV10@@Z DD 040a01H
	DD	08340aH
	DD	06006320aH
xdata	ENDS
;	COMDAT xdata
xdata	SEGMENT
$chain$3$??$_Erase_tree@V?$allocator@U?$_Tree_node@V?$vector@HV?$allocator@H@std@@@std@@PEAX@std@@@std@@@?$_Tree_val@U?$_Tree_simple_types@V?$vector@HV?$allocator@H@std@@@std@@@std@@@std@@QEAAXAEAV?$allocator@U?$_Tree_node@V?$vector@HV?$allocator@H@std@@@std@@PEAX@std@@@1@PEAU?$_Tree_node@V?$vector@HV?$allocator@H@std@@@std@@PEAX@1@@Z DD 040021H
	DD	04e400H
	DD	053400H
	DD	imagerel $LN76
	DD	imagerel $LN76+28
	DD	imagerel $unwind$??$_Erase_tree@V?$allocator@U?$_Tree_node@V?$vector@HV?$allocator@H@std@@@std@@PEAX@std@@@std@@@?$_Tree_val@U?$_Tree_simple_types@V?$vector@HV?$allocator@H@std@@@std@@@std@@@std@@QEAAXAEAV?$allocator@U?$_Tree_node@V?$vector@HV?$allocator@H@std@@@std@@PEAX@std@@@1@PEAU?$_Tree_node@V?$vector@HV?$allocator@H@std@@@std@@PEAX@1@@Z
xdata	ENDS
;	COMDAT xdata
xdata	SEGMENT
$chain$2$??$_Erase_tree@V?$allocator@U?$_Tree_node@V?$vector@HV?$allocator@H@std@@@std@@PEAX@std@@@std@@@?$_Tree_val@U?$_Tree_simple_types@V?$vector@HV?$allocator@H@std@@@std@@@std@@@std@@QEAAXAEAV?$allocator@U?$_Tree_node@V?$vector@HV?$allocator@H@std@@@std@@PEAX@std@@@1@PEAU?$_Tree_node@V?$vector@HV?$allocator@H@std@@@std@@PEAX@1@@Z DD 021H
	DD	imagerel $LN76
	DD	imagerel $LN76+28
	DD	imagerel $unwind$??$_Erase_tree@V?$allocator@U?$_Tree_node@V?$vector@HV?$allocator@H@std@@@std@@PEAX@std@@@std@@@?$_Tree_val@U?$_Tree_simple_types@V?$vector@HV?$allocator@H@std@@@std@@@std@@@std@@QEAAXAEAV?$allocator@U?$_Tree_node@V?$vector@HV?$allocator@H@std@@@std@@PEAX@std@@@1@PEAU?$_Tree_node@V?$vector@HV?$allocator@H@std@@@std@@PEAX@1@@Z
xdata	ENDS
;	COMDAT xdata
xdata	SEGMENT
$chain$1$??$_Erase_tree@V?$allocator@U?$_Tree_node@V?$vector@HV?$allocator@H@std@@@std@@PEAX@std@@@std@@@?$_Tree_val@U?$_Tree_simple_types@V?$vector@HV?$allocator@H@std@@@std@@@std@@@std@@QEAAXAEAV?$allocator@U?$_Tree_node@V?$vector@HV?$allocator@H@std@@@std@@PEAX@std@@@1@PEAU?$_Tree_node@V?$vector@HV?$allocator@H@std@@@std@@PEAX@1@@Z DD 040a21H
	DD	04e40aH
	DD	053405H
	DD	imagerel $LN76
	DD	imagerel $LN76+28
	DD	imagerel $unwind$??$_Erase_tree@V?$allocator@U?$_Tree_node@V?$vector@HV?$allocator@H@std@@@std@@PEAX@std@@@std@@@?$_Tree_val@U?$_Tree_simple_types@V?$vector@HV?$allocator@H@std@@@std@@@std@@@std@@QEAAXAEAV?$allocator@U?$_Tree_node@V?$vector@HV?$allocator@H@std@@@std@@PEAX@std@@@1@PEAU?$_Tree_node@V?$vector@HV?$allocator@H@std@@@std@@PEAX@1@@Z
xdata	ENDS
;	COMDAT xdata
xdata	SEGMENT
$unwind$??$_Erase_tree@V?$allocator@U?$_Tree_node@V?$vector@HV?$allocator@H@std@@@std@@PEAX@std@@@std@@@?$_Tree_val@U?$_Tree_simple_types@V?$vector@HV?$allocator@H@std@@@std@@@std@@@std@@QEAAXAEAV?$allocator@U?$_Tree_node@V?$vector@HV?$allocator@H@std@@@std@@PEAX@std@@@1@PEAU?$_Tree_node@V?$vector@HV?$allocator@H@std@@@std@@PEAX@1@@Z DD 040801H
	DD	070045208H
	DD	050026003H
xdata	ENDS
;	COMDAT xdata
xdata	SEGMENT
$unwind$??$_Erase_tree@V?$allocator@U?$_Tree_node@HPEAX@std@@@std@@@?$_Tree_val@U?$_Tree_simple_types@H@std@@@std@@QEAAXAEAV?$allocator@U?$_Tree_node@HPEAX@std@@@1@PEAU?$_Tree_node@HPEAX@1@@Z DD 040801H
	DD	070043208H
	DD	030026003H
xdata	ENDS
;	COMDAT xdata
xdata	SEGMENT
$chain$7$??$_Emplace_reallocate@V?$vector@HV?$allocator@H@std@@@std@@@?$vector@V?$vector@HV?$allocator@H@std@@@std@@V?$allocator@V?$vector@HV?$allocator@H@std@@@std@@@2@@std@@AEAAPEAV?$vector@HV?$allocator@H@std@@@1@QEAV21@$$QEAV21@@Z DD 080021H
	DD	04e400H
	DD	05d400H
	DD	065400H
	DD	0f3400H
	DD	imagerel $LN204
	DD	imagerel $LN204+118
	DD	imagerel $unwind$??$_Emplace_reallocate@V?$vector@HV?$allocator@H@std@@@std@@@?$vector@V?$vector@HV?$allocator@H@std@@@std@@V?$allocator@V?$vector@HV?$allocator@H@std@@@std@@@2@@std@@AEAAPEAV?$vector@HV?$allocator@H@std@@@1@QEAV21@$$QEAV21@@Z
xdata	ENDS
;	COMDAT xdata
xdata	SEGMENT
$chain$6$??$_Emplace_reallocate@V?$vector@HV?$allocator@H@std@@@std@@@?$vector@V?$vector@HV?$allocator@H@std@@@std@@V?$allocator@V?$vector@HV?$allocator@H@std@@@std@@@2@@std@@AEAAPEAV?$vector@HV?$allocator@H@std@@@1@QEAV21@$$QEAV21@@Z DD 021H
	DD	imagerel $LN204
	DD	imagerel $LN204+118
	DD	imagerel $unwind$??$_Emplace_reallocate@V?$vector@HV?$allocator@H@std@@@std@@@?$vector@V?$vector@HV?$allocator@H@std@@@std@@V?$allocator@V?$vector@HV?$allocator@H@std@@@std@@@2@@std@@AEAAPEAV?$vector@HV?$allocator@H@std@@@1@QEAV21@$$QEAV21@@Z
xdata	ENDS
;	COMDAT xdata
xdata	SEGMENT
$chain$5$??$_Emplace_reallocate@V?$vector@HV?$allocator@H@std@@@std@@@?$vector@V?$vector@HV?$allocator@H@std@@@std@@V?$allocator@V?$vector@HV?$allocator@H@std@@@std@@@2@@std@@AEAAPEAV?$vector@HV?$allocator@H@std@@@1@QEAV21@$$QEAV21@@Z DD 080021H
	DD	04e400H
	DD	05d400H
	DD	065400H
	DD	0f3400H
	DD	imagerel $LN204
	DD	imagerel $LN204+118
	DD	imagerel $unwind$??$_Emplace_reallocate@V?$vector@HV?$allocator@H@std@@@std@@@?$vector@V?$vector@HV?$allocator@H@std@@@std@@V?$allocator@V?$vector@HV?$allocator@H@std@@@std@@@2@@std@@AEAAPEAV?$vector@HV?$allocator@H@std@@@1@QEAV21@$$QEAV21@@Z
xdata	ENDS
;	COMDAT xdata
xdata	SEGMENT
$chain$3$??$_Emplace_reallocate@V?$vector@HV?$allocator@H@std@@@std@@@?$vector@V?$vector@HV?$allocator@H@std@@@std@@V?$allocator@V?$vector@HV?$allocator@H@std@@@std@@@2@@std@@AEAAPEAV?$vector@HV?$allocator@H@std@@@1@QEAV21@$$QEAV21@@Z DD 082221H
	DD	04e422H
	DD	05d416H
	DD	06540aH
	DD	0f3405H
	DD	imagerel $LN204
	DD	imagerel $LN204+118
	DD	imagerel $unwind$??$_Emplace_reallocate@V?$vector@HV?$allocator@H@std@@@std@@@?$vector@V?$vector@HV?$allocator@H@std@@@std@@V?$allocator@V?$vector@HV?$allocator@H@std@@@std@@@2@@std@@AEAAPEAV?$vector@HV?$allocator@H@std@@@1@QEAV21@$$QEAV21@@Z
xdata	ENDS
;	COMDAT xdata
xdata	SEGMENT
$unwind$??$_Emplace_reallocate@V?$vector@HV?$allocator@H@std@@@std@@@?$vector@V?$vector@HV?$allocator@H@std@@@std@@V?$allocator@V?$vector@HV?$allocator@H@std@@@std@@@2@@std@@AEAAPEAV?$vector@HV?$allocator@H@std@@@1@QEAV21@$$QEAV21@@Z DD 050b01H
	DD	0f007620bH
	DD	07003c005H
	DD	06002H
xdata	ENDS
;	COMDAT xdata
xdata	SEGMENT
$unwind$??$_Resize_reallocate@U_Value_init_tag@std@@@?$vector@HV?$allocator@H@std@@@std@@AEAAX_KAEBU_Value_init_tag@1@@Z DD 081401H
	DD	096414H
	DD	085414H
	DD	073414H
	DD	070103214H
xdata	ENDS
;	COMDAT xdata
xdata	SEGMENT
$unwind$??$_Uninitialized_value_construct_n@V?$allocator@H@std@@@std@@YAPEAHPEAH_KAEAV?$allocator@H@0@@Z DD 040a01H
	DD	08340aH
	DD	07006320aH
xdata	ENDS
;	COMDAT xdata
xdata	SEGMENT
$unwind$??$_Uninitialized_copy_n@PEBHV?$allocator@H@std@@@std@@YAPEAHPEBH_KPEAHAEAV?$allocator@H@0@@Z DD 040a01H
	DD	09340aH
	DD	07006320aH
xdata	ENDS
;	COMDAT xdata
xdata	SEGMENT
$unwind$??$_Copy_memmove_n@PEBHPEAH@std@@YAPEAHPEBH_KPEAH@Z DD 040a01H
	DD	09340aH
	DD	07006320aH
xdata	ENDS
;	COMDAT xdata
xdata	SEGMENT
$unwind$??$_Copy_n_unchecked4@PEBH_KPEAH@std@@YAPEAHPEBH_KPEAH@Z DD 040a01H
	DD	09340aH
	DD	07006320aH
xdata	ENDS
;	COMDAT xdata
xdata	SEGMENT
$chain$6$??$_Emplace_reallocate@AEBH@?$vector@HV?$allocator@H@std@@@std@@AEAAPEAHQEAHAEBH@Z DD 060021H
	DD	04f400H
	DD	0d6400H
	DD	0c3400H
	DD	imagerel $LN133
	DD	imagerel $LN133+70
	DD	imagerel $unwind$??$_Emplace_reallocate@AEBH@?$vector@HV?$allocator@H@std@@@std@@AEAAPEAHQEAHAEBH@Z
xdata	ENDS
;	COMDAT xdata
xdata	SEGMENT
$chain$5$??$_Emplace_reallocate@AEBH@?$vector@HV?$allocator@H@std@@@std@@AEAAPEAHQEAHAEBH@Z DD 021H
	DD	imagerel $LN133
	DD	imagerel $LN133+70
	DD	imagerel $unwind$??$_Emplace_reallocate@AEBH@?$vector@HV?$allocator@H@std@@@std@@AEAAPEAHQEAHAEBH@Z
xdata	ENDS
;	COMDAT xdata
xdata	SEGMENT
$chain$4$??$_Emplace_reallocate@AEBH@?$vector@HV?$allocator@H@std@@@std@@AEAAPEAHQEAHAEBH@Z DD 060021H
	DD	04f400H
	DD	0d6400H
	DD	0c3400H
	DD	imagerel $LN133
	DD	imagerel $LN133+70
	DD	imagerel $unwind$??$_Emplace_reallocate@AEBH@?$vector@HV?$allocator@H@std@@@std@@AEAAPEAHQEAHAEBH@Z
xdata	ENDS
;	COMDAT xdata
xdata	SEGMENT
$chain$2$??$_Emplace_reallocate@AEBH@?$vector@HV?$allocator@H@std@@@std@@AEAAPEAHQEAHAEBH@Z DD 061921H
	DD	04f419H
	DD	0d640eH
	DD	0c3405H
	DD	imagerel $LN133
	DD	imagerel $LN133+70
	DD	imagerel $unwind$??$_Emplace_reallocate@AEBH@?$vector@HV?$allocator@H@std@@@std@@AEAAPEAHQEAHAEBH@Z
xdata	ENDS
;	COMDAT xdata
xdata	SEGMENT
$unwind$??$_Emplace_reallocate@AEBH@?$vector@HV?$allocator@H@std@@@std@@AEAAPEAHQEAHAEBH@Z DD 050b01H
	DD	0e007420bH
	DD	07003c005H
	DD	05002H
xdata	ENDS
;	COMDAT xdata
xdata	SEGMENT
$unwind$??$_Uninitialized_copy@PEAHPEAHV?$allocator@H@std@@@std@@YAPEAHPEAH00AEAV?$allocator@H@0@@Z DD 040a01H
	DD	09340aH
	DD	07006320aH
xdata	ENDS
;	COMDAT xdata
xdata	SEGMENT
$unwind$??$_Uninitialized_fill_n@V?$allocator@H@std@@@std@@YAPEAHPEAH_KAEBHAEAV?$allocator@H@0@@Z DD 020601H
	DD	030023206H
xdata	ENDS
;	COMDAT xdata
xdata	SEGMENT
$unwind$??$_Get_size_of_n@$03@std@@YA_K_K@Z DD 010401H
	DD	04204H
xdata	ENDS
;	COMDAT xdata
xdata	SEGMENT
$unwind$??$_Allocate@$0BA@U_Default_allocate_traits@std@@$0A@@std@@YAPEAX_K@Z DD 010401H
	DD	04204H
xdata	ENDS
;	COMDAT xdata
xdata	SEGMENT
$unwind$??$_Buyheadnode@V?$allocator@U?$_Tree_node@V?$vector@HV?$allocator@H@std@@@std@@PEAX@std@@@std@@@?$_Tree_node@V?$vector@HV?$allocator@H@std@@@std@@PEAX@std@@SAPEAU01@AEAV?$allocator@U?$_Tree_node@V?$vector@HV?$allocator@H@std@@@std@@PEAX@std@@@1@@Z DD 010401H
	DD	04204H
xdata	ENDS
;	COMDAT xdata
xdata	SEGMENT
$unwind$??$_Buyheadnode@V?$allocator@U?$_Tree_node@HPEAX@std@@@std@@@?$_Tree_node@HPEAX@std@@SAPEAU01@AEAV?$allocator@U?$_Tree_node@HPEAX@std@@@1@@Z DD 010401H
	DD	04204H
xdata	ENDS
;	COMDAT xdata
xdata	SEGMENT
$unwind$?_Xlength@?$vector@V?$vector@HV?$allocator@H@std@@@std@@V?$allocator@V?$vector@HV?$allocator@H@std@@@std@@@2@@std@@CAXXZ DD 010401H
	DD	04204H
xdata	ENDS
;	COMDAT xdata
xdata	SEGMENT
$unwind$?_Change_array@?$vector@V?$vector@HV?$allocator@H@std@@@std@@V?$allocator@V?$vector@HV?$allocator@H@std@@@std@@@2@@std@@AEAAXQEAV?$vector@HV?$allocator@H@std@@@2@_K1@Z DD 081501H
	DD	097415H
	DD	086415H
	DD	073415H
	DD	0e0113215H
xdata	ENDS
;	COMDAT xdata
xdata	SEGMENT
$chain$4$?_Clear_and_reserve_geometric@?$vector@V?$vector@HV?$allocator@H@std@@@std@@V?$allocator@V?$vector@HV?$allocator@H@std@@@std@@@2@@std@@AEAAX_K@Z DD 060021H
	DD	04e400H
	DD	0b7400H
	DD	0a3400H
	DD	imagerel $LN77
	DD	imagerel $LN77+42
	DD	imagerel $unwind$?_Clear_and_reserve_geometric@?$vector@V?$vector@HV?$allocator@H@std@@@std@@V?$allocator@V?$vector@HV?$allocator@H@std@@@std@@@2@@std@@AEAAX_K@Z
xdata	ENDS
;	COMDAT xdata
xdata	SEGMENT
$chain$3$?_Clear_and_reserve_geometric@?$vector@V?$vector@HV?$allocator@H@std@@@std@@V?$allocator@V?$vector@HV?$allocator@H@std@@@std@@@2@@std@@AEAAX_K@Z DD 021H
	DD	imagerel $LN77
	DD	imagerel $LN77+42
	DD	imagerel $unwind$?_Clear_and_reserve_geometric@?$vector@V?$vector@HV?$allocator@H@std@@@std@@V?$allocator@V?$vector@HV?$allocator@H@std@@@std@@@2@@std@@AEAAX_K@Z
xdata	ENDS
;	COMDAT xdata
xdata	SEGMENT
$chain$2$?_Clear_and_reserve_geometric@?$vector@V?$vector@HV?$allocator@H@std@@@std@@V?$allocator@V?$vector@HV?$allocator@H@std@@@std@@@2@@std@@AEAAX_K@Z DD 060f21H
	DD	04e40fH
	DD	0b740aH
	DD	0a3405H
	DD	imagerel $LN77
	DD	imagerel $LN77+42
	DD	imagerel $unwind$?_Clear_and_reserve_geometric@?$vector@V?$vector@HV?$allocator@H@std@@@std@@V?$allocator@V?$vector@HV?$allocator@H@std@@@std@@@2@@std@@AEAAX_K@Z
xdata	ENDS
;	COMDAT xdata
xdata	SEGMENT
$unwind$?_Clear_and_reserve_geometric@?$vector@V?$vector@HV?$allocator@H@std@@@std@@V?$allocator@V?$vector@HV?$allocator@H@std@@@std@@@2@@std@@AEAAX_K@Z DD 030701H
	DD	060034207H
	DD	05002H
xdata	ENDS
;	COMDAT xdata
xdata	SEGMENT
$unwind$?allocate@?$allocator@V?$vector@HV?$allocator@H@std@@@std@@@std@@QEAAPEAV?$vector@HV?$allocator@H@std@@@2@_K@Z DD 010401H
	DD	04204H
xdata	ENDS
;	COMDAT xdata
xdata	SEGMENT
$unwind$?_Change_array@?$vector@HV?$allocator@H@std@@@std@@AEAAXQEAH_K1@Z DD 081401H
	DD	096414H
	DD	085414H
	DD	073414H
	DD	070103214H
xdata	ENDS
;	COMDAT xdata
xdata	SEGMENT
$chain$6$??4?$vector@HV?$allocator@H@std@@@std@@QEAAAEAV01@AEBV01@@Z DD 021H
	DD	imagerel $LN77
	DD	imagerel $LN77+18
	DD	imagerel $unwind$??4?$vector@HV?$allocator@H@std@@@std@@QEAAAEAV01@AEBV01@@Z
xdata	ENDS
;	COMDAT xdata
xdata	SEGMENT
$chain$5$??4?$vector@HV?$allocator@H@std@@@std@@QEAAAEAV01@AEBV01@@Z DD 021H
	DD	imagerel $LN77+18
	DD	imagerel $LN77+120
	DD	imagerel $chain$3$??4?$vector@HV?$allocator@H@std@@@std@@QEAAAEAV01@AEBV01@@Z
xdata	ENDS
;	COMDAT xdata
xdata	SEGMENT
$chain$4$??4?$vector@HV?$allocator@H@std@@@std@@QEAAAEAV01@AEBV01@@Z DD 020521H
	DD	05e405H
	DD	imagerel $LN77+18
	DD	imagerel $LN77+120
	DD	imagerel $chain$3$??4?$vector@HV?$allocator@H@std@@@std@@QEAAAEAV01@AEBV01@@Z
xdata	ENDS
;	COMDAT xdata
xdata	SEGMENT
$chain$3$??4?$vector@HV?$allocator@H@std@@@std@@QEAAAEAV01@AEBV01@@Z DD 083021H
	DD	0c3430H
	DD	04f41aH
	DD	06740eH
	DD	075405H
	DD	imagerel $LN77
	DD	imagerel $LN77+18
	DD	imagerel $unwind$??4?$vector@HV?$allocator@H@std@@@std@@QEAAAEAV01@AEBV01@@Z
xdata	ENDS
;	COMDAT xdata
xdata	SEGMENT
$unwind$??4?$vector@HV?$allocator@H@std@@@std@@QEAAAEAV01@AEBV01@@Z DD 020601H
	DD	060027206H
xdata	ENDS
;	COMDAT xdata
xdata	SEGMENT
$unwind$?_Buy_raw@?$vector@V?$vector@HV?$allocator@H@std@@@std@@V?$allocator@V?$vector@HV?$allocator@H@std@@@std@@@2@@std@@AEAAX_K@Z DD 040a01H
	DD	06340aH
	DD	07006320aH
xdata	ENDS
;	COMDAT xdata
xdata	SEGMENT
$ip2state$??$_Insert_range_unchecked@PEAHPEAH@?$_Tree@V?$_Tset_traits@HU?$less@H@std@@V?$allocator@H@2@$0A@@std@@@std@@IEAAXPEAHQEAH@Z DB 04H
	DB	015H, 02H
	DB	02H
	DB	0c4H
	DB	00H
xdata	ENDS
;	COMDAT xdata
xdata	SEGMENT
$stateUnwindMap$??$_Insert_range_unchecked@PEAHPEAH@?$_Tree@V?$_Tset_traits@HU?$less@H@std@@V?$allocator@H@2@$0A@@std@@@std@@IEAAXPEAHQEAH@Z DB 02H
	DB	0aH
	DD	imagerel ??1?$_Alloc_construct_ptr@V?$allocator@U?$_Tree_node@HPEAX@std@@@std@@@std@@QEAA@XZ
	DB	060H
xdata	ENDS
;	COMDAT xdata
xdata	SEGMENT
$cppxdata$??$_Insert_range_unchecked@PEAHPEAH@?$_Tree@V?$_Tset_traits@HU?$less@H@std@@V?$allocator@H@2@$0A@@std@@@std@@IEAAXPEAHQEAH@Z DB 028H
	DD	imagerel $stateUnwindMap$??$_Insert_range_unchecked@PEAHPEAH@?$_Tree@V?$_Tset_traits@HU?$less@H@std@@V?$allocator@H@2@$0A@@std@@@std@@IEAAXPEAHQEAH@Z
	DD	imagerel $ip2state$??$_Insert_range_unchecked@PEAHPEAH@?$_Tree@V?$_Tset_traits@HU?$less@H@std@@V?$allocator@H@2@$0A@@std@@@std@@IEAAXPEAHQEAH@Z
xdata	ENDS
;	COMDAT xdata
xdata	SEGMENT
$unwind$??$_Insert_range_unchecked@PEAHPEAH@?$_Tree@V?$_Tset_traits@HU?$less@H@std@@V?$allocator@H@2@$0A@@std@@@std@@IEAAXPEAHQEAH@Z DD 0a1f11H
	DD	017541fH
	DD	016341fH
	DD	0f01bd21fH
	DD	0c017e019H
	DD	060147015H
	DD	imagerel __CxxFrameHandler4
	DD	imagerel $cppxdata$??$_Insert_range_unchecked@PEAHPEAH@?$_Tree@V?$_Tset_traits@HU?$less@H@std@@V?$allocator@H@2@$0A@@std@@@std@@IEAAXPEAHQEAH@Z
xdata	ENDS
;	COMDAT xdata
xdata	SEGMENT
$ip2state$??$_Insert_range_unchecked@PEAV?$vector@HV?$allocator@H@std@@@std@@PEAV12@@?$_Tree@V?$_Tset_traits@V?$vector@HV?$allocator@H@std@@@std@@U?$less@V?$vector@HV?$allocator@H@std@@@std@@@2@V?$allocator@V?$vector@HV?$allocator@H@std@@@std@@@2@$0A@@std@@@std@@IEAAXPEAV?$vector@HV?$allocator@H@std@@@1@QEAV21@@Z DB 06H
	DB	'%', 02H
	DB	02H
	DB	'('
	DB	04H
	DB	0b4H
	DB	00H
xdata	ENDS
;	COMDAT xdata
xdata	SEGMENT
$stateUnwindMap$??$_Insert_range_unchecked@PEAV?$vector@HV?$allocator@H@std@@@std@@PEAV12@@?$_Tree@V?$_Tset_traits@V?$vector@HV?$allocator@H@std@@@std@@U?$less@V?$vector@HV?$allocator@H@std@@@std@@@2@V?$allocator@V?$vector@HV?$allocator@H@std@@@std@@@2@$0A@@std@@@std@@IEAAXPEAV?$vector@HV?$allocator@H@std@@@1@QEAV21@@Z DB 04H
	DB	0aH
	DD	imagerel ??1?$_Alloc_construct_ptr@V?$allocator@U?$_Tree_node@V?$vector@HV?$allocator@H@std@@@std@@PEAX@std@@@std@@@std@@QEAA@XZ
	DB	040H
	DB	03aH
	DD	imagerel ??1?$_Tree_temp_node_alloc@V?$allocator@U?$_Tree_node@V?$vector@HV?$allocator@H@std@@@std@@PEAX@std@@@std@@@std@@QEAA@XZ
	DB	040H
xdata	ENDS
;	COMDAT xdata
xdata	SEGMENT
$cppxdata$??$_Insert_range_unchecked@PEAV?$vector@HV?$allocator@H@std@@@std@@PEAV12@@?$_Tree@V?$_Tset_traits@V?$vector@HV?$allocator@H@std@@@std@@U?$less@V?$vector@HV?$allocator@H@std@@@std@@@2@V?$allocator@V?$vector@HV?$allocator@H@std@@@std@@@2@$0A@@std@@@std@@IEAAXPEAV?$vector@HV?$allocator@H@std@@@1@QEAV21@@Z DB 028H
	DD	imagerel $stateUnwindMap$??$_Insert_range_unchecked@PEAV?$vector@HV?$allocator@H@std@@@std@@PEAV12@@?$_Tree@V?$_Tset_traits@V?$vector@HV?$allocator@H@std@@@std@@U?$less@V?$vector@HV?$allocator@H@std@@@std@@@2@V?$allocator@V?$vector@HV?$allocator@H@std@@@std@@@2@$0A@@std@@@std@@IEAAXPEAV?$vector@HV?$allocator@H@std@@@1@QEAV21@@Z
	DD	imagerel $ip2state$??$_Insert_range_unchecked@PEAV?$vector@HV?$allocator@H@std@@@std@@PEAV12@@?$_Tree@V?$_Tset_traits@V?$vector@HV?$allocator@H@std@@@std@@U?$less@V?$vector@HV?$allocator@H@std@@@std@@@2@V?$allocator@V?$vector@HV?$allocator@H@std@@@std@@@2@$0A@@std@@@std@@IEAAXPEAV?$vector@HV?$allocator@H@std@@@1@QEAV21@@Z
xdata	ENDS
;	COMDAT xdata
xdata	SEGMENT
$unwind$??$_Insert_range_unchecked@PEAV?$vector@HV?$allocator@H@std@@@std@@PEAV12@@?$_Tree@V?$_Tset_traits@V?$vector@HV?$allocator@H@std@@@std@@U?$less@V?$vector@HV?$allocator@H@std@@@std@@@2@V?$allocator@V?$vector@HV?$allocator@H@std@@@std@@@2@$0A@@std@@@std@@IEAAXPEAV?$vector@HV?$allocator@H@std@@@1@QEAV21@@Z DD 0a1d11H
	DD	018341dH
	DD	0f019d21dH
	DD	0d015e017H
	DD	07011c013H
	DD	0500f6010H
	DD	imagerel __CxxFrameHandler4
	DD	imagerel $cppxdata$??$_Insert_range_unchecked@PEAV?$vector@HV?$allocator@H@std@@@std@@PEAV12@@?$_Tree@V?$_Tset_traits@V?$vector@HV?$allocator@H@std@@@std@@U?$less@V?$vector@HV?$allocator@H@std@@@std@@@2@V?$allocator@V?$vector@HV?$allocator@H@std@@@std@@@2@$0A@@std@@@std@@IEAAXPEAV?$vector@HV?$allocator@H@std@@@1@QEAV21@@Z
xdata	ENDS
;	COMDAT xdata
xdata	SEGMENT
